	.file	"main.c"
	.text
	.section .rdata,"dr"
_ZStL19piecewise_construct:
	.space 1
	.text
	.def	_ZL9vsnprintfPcyPKcS_;	.scl	3;	.type	32;	.endef
	.seh_proc	_ZL9vsnprintfPcyPKcS_
_ZL9vsnprintfPcyPKcS_:
.LFB500:
	pushq	%rbp
	.seh_pushreg	%rbp
	movq	%rsp, %rbp
	.seh_setframe	%rbp, 0
	subq	$32, %rsp
	.seh_stackalloc	32
	.seh_endprologue
	movq	%rcx, 16(%rbp)
	movq	%rdx, 24(%rbp)
	movq	%r8, 32(%rbp)
	movq	%r9, 40(%rbp)
	movq	40(%rbp), %rcx
	movq	32(%rbp), %rdx
	movq	24(%rbp), %rax
	movq	%rcx, %r9
	movq	%rdx, %r8
	movq	%rax, %rdx
	movq	16(%rbp), %rcx
	call	__mingw_vsnprintf
	addq	$32, %rsp
	popq	%rbp
	ret
	.seh_endproc
	.section .rdata,"dr"
.LC0:
	.ascii "stoi\0"
	.section	.text$_ZNSt7__cxx114stoiERKNS_12basic_stringIcSt11char_traitsIcESaIcEEEPyi,"x"
	.linkonce discard
	.globl	_ZNSt7__cxx114stoiERKNS_12basic_stringIcSt11char_traitsIcESaIcEEEPyi
	.def	_ZNSt7__cxx114stoiERKNS_12basic_stringIcSt11char_traitsIcESaIcEEEPyi;	.scl	2;	.type	32;	.endef
	.seh_proc	_ZNSt7__cxx114stoiERKNS_12basic_stringIcSt11char_traitsIcESaIcEEEPyi
_ZNSt7__cxx114stoiERKNS_12basic_stringIcSt11char_traitsIcESaIcEEEPyi:
.LFB959:
	pushq	%rbp
	.seh_pushreg	%rbp
	movq	%rsp, %rbp
	.seh_setframe	%rbp, 0
	subq	$48, %rsp
	.seh_stackalloc	48
	.seh_endprologue
	movq	%rcx, 16(%rbp)
	movq	%rdx, 24(%rbp)
	movl	%r8d, 32(%rbp)
	movq	16(%rbp), %rcx
	call	_ZNKSt7__cxx1112basic_stringIcSt11char_traitsIcESaIcEE5c_strEv
	movq	%rax, %rcx
	movq	24(%rbp), %rdx
	movl	32(%rbp), %eax
	movl	%eax, 32(%rsp)
	movq	%rdx, %r9
	movq	%rcx, %r8
	leaq	.LC0(%rip), %rdx
	movq	.refptr.strtol(%rip), %rcx
	call	_ZN9__gnu_cxx6__stoaIlicJiEEET0_PFT_PKT1_PPS3_DpT2_EPKcS5_PyS9_
	addq	$48, %rsp
	popq	%rbp
	ret
	.seh_endproc
	.section .rdata,"dr"
.LC1:
	.ascii "%d\0"
	.section	.text$_ZNSt7__cxx119to_stringEi,"x"
	.linkonce discard
	.globl	_ZNSt7__cxx119to_stringEi
	.def	_ZNSt7__cxx119to_stringEi;	.scl	2;	.type	32;	.endef
	.seh_proc	_ZNSt7__cxx119to_stringEi
_ZNSt7__cxx119to_stringEi:
.LFB967:
	pushq	%rbp
	.seh_pushreg	%rbp
	movq	%rsp, %rbp
	.seh_setframe	%rbp, 0
	subq	$48, %rsp
	.seh_stackalloc	48
	.seh_endprologue
	movq	%rcx, 16(%rbp)
	movl	%edx, 24(%rbp)
	movq	16(%rbp), %rax
	movl	24(%rbp), %edx
	movl	%edx, 32(%rsp)
	leaq	.LC1(%rip), %r9
	movl	$16, %r8d
	leaq	_ZL9vsnprintfPcyPKcS_(%rip), %rdx
	movq	%rax, %rcx
	call	_ZN9__gnu_cxx12__to_xstringINSt7__cxx1112basic_stringIcSt11char_traitsIcESaIcEEEcEET_PFiPT0_yPKS8_PcEySB_z
	movq	16(%rbp), %rax
	addq	$48, %rsp
	popq	%rbp
	ret
	.seh_endproc
.lcomm _ZStL8__ioinit,1,1
.lcomm _ZL10sourceText,14304,32
	.section .rdata,"dr"
.LC2:
	.ascii " \0"
	.section	.text$_Z6RandomB5cxx11v,"x"
	.linkonce discard
	.globl	_Z6RandomB5cxx11v
	.def	_Z6RandomB5cxx11v;	.scl	2;	.type	32;	.endef
	.seh_proc	_Z6RandomB5cxx11v
_Z6RandomB5cxx11v:
.LFB1699:
	pushq	%rbp
	.seh_pushreg	%rbp
	pushq	%rbx
	.seh_pushreg	%rbx
	subq	$56, %rsp
	.seh_stackalloc	56
	leaq	128(%rsp), %rbp
	.seh_setframe	%rbp, 128
	.seh_endprologue
	movq	%rcx, -48(%rbp)
	movq	-48(%rbp), %rcx
	call	_ZNSt7__cxx1112basic_stringIcSt11char_traitsIcESaIcEEC1Ev
	movl	$1, -84(%rbp)
.L9:
	call	rand
	movl	%eax, %ecx
	movl	$274877907, %edx
	movl	%ecx, %eax
	imull	%edx
	sarl	$6, %edx
	movl	%ecx, %eax
	sarl	$31, %eax
	subl	%eax, %edx
	movl	%edx, %eax
	imull	$1000, %eax, %eax
	subl	%eax, %ecx
	movl	%ecx, %eax
	cmpl	%eax, -84(%rbp)
	setle	%al
	testb	%al, %al
	je	.L13
	call	rand
	movl	%eax, %ecx
	movl	$1195121335, %edx
	movl	%ecx, %eax
	imull	%edx
	sarl	$7, %edx
	movl	%ecx, %eax
	sarl	$31, %eax
	subl	%eax, %edx
	movl	%edx, %eax
	imull	$460, %eax, %eax
	subl	%eax, %ecx
	movl	%ecx, %eax
	cltq
	salq	$5, %rax
	movq	%rax, %rdx
	leaq	_ZL10sourceText(%rip), %rax
	addq	%rdx, %rax
	movq	%rax, %rdx
	movq	-48(%rbp), %rcx
.LEHB0:
	call	_ZNSt7__cxx1112basic_stringIcSt11char_traitsIcESaIcEEpLERKS4_
	leaq	.LC2(%rip), %rdx
	movq	-48(%rbp), %rcx
	call	_ZNSt7__cxx1112basic_stringIcSt11char_traitsIcESaIcEEpLEPKc
.LEHE0:
	addl	$1, -84(%rbp)
	jmp	.L9
.L12:
	movq	%rax, %rbx
	movq	-48(%rbp), %rcx
	call	_ZNSt7__cxx1112basic_stringIcSt11char_traitsIcESaIcEED1Ev
	movq	%rbx, %rax
	movq	%rax, %rcx
.LEHB1:
	call	_Unwind_Resume
.LEHE1:
.L13:
	nop
	movq	-48(%rbp), %rax
	addq	$56, %rsp
	popq	%rbx
	popq	%rbp
	ret
	.def	__gxx_personality_seh0;	.scl	2;	.type	32;	.endef
	.seh_handler	__gxx_personality_seh0, @unwind, @except
	.seh_handlerdata
.LLSDA1699:
	.byte	0xff
	.byte	0xff
	.byte	0x1
	.uleb128 .LLSDACSE1699-.LLSDACSB1699
.LLSDACSB1699:
	.uleb128 .LEHB0-.LFB1699
	.uleb128 .LEHE0-.LEHB0
	.uleb128 .L12-.LFB1699
	.uleb128 0
	.uleb128 .LEHB1-.LFB1699
	.uleb128 .LEHE1-.LEHB1
	.uleb128 0
	.uleb128 0
.LLSDACSE1699:
	.section	.text$_Z6RandomB5cxx11v,"x"
	.linkonce discard
	.seh_endproc
	.section .rdata,"dr"
.LC3:
	.ascii "text\12\0"
.LC4:
	.ascii "\12\0"
	.section	.text$_ZN4text7EncryptEv,"x"
	.linkonce discard
	.align 2
	.globl	_ZN4text7EncryptEv
	.def	_ZN4text7EncryptEv;	.scl	2;	.type	32;	.endef
	.seh_proc	_ZN4text7EncryptEv
_ZN4text7EncryptEv:
.LFB1700:
	pushq	%rbp
	.seh_pushreg	%rbp
	movq	%rsp, %rbp
	.seh_setframe	%rbp, 0
	subq	$32, %rsp
	.seh_stackalloc	32
	.seh_endprologue
	movq	%rcx, 16(%rbp)
	movq	16(%rbp), %rax
	leaq	8(%rax), %rdx
	movq	16(%rbp), %rax
	addq	$40, %rax
	movq	%rax, %rcx
	call	_ZNSt7__cxx1112basic_stringIcSt11char_traitsIcESaIcEEaSERKS4_
	leaq	.LC3(%rip), %rdx
	movq	.refptr._ZSt4cout(%rip), %rcx
	call	_ZStlsISt11char_traitsIcEERSt13basic_ostreamIcT_ES5_PKc
	movq	%rax, %rcx
	movq	16(%rbp), %rax
	addq	$8, %rax
	movq	%rax, %rdx
	call	_ZStlsIcSt11char_traitsIcESaIcEERSt13basic_ostreamIT_T0_ES7_RKNSt7__cxx1112basic_stringIS4_S5_T1_EE
	leaq	.LC4(%rip), %rdx
	movq	%rax, %rcx
	call	_ZStlsISt11char_traitsIcEERSt13basic_ostreamIcT_ES5_PKc
	movq	%rax, %rcx
	movq	16(%rbp), %rax
	addq	$40, %rax
	movq	%rax, %rdx
	call	_ZStlsIcSt11char_traitsIcESaIcEERSt13basic_ostreamIT_T0_ES7_RKNSt7__cxx1112basic_stringIS4_S5_T1_EE
	leaq	.LC4(%rip), %rdx
	movq	%rax, %rcx
	call	_ZStlsISt11char_traitsIcEERSt13basic_ostreamIcT_ES5_PKc
	nop
	addq	$32, %rsp
	popq	%rbp
	ret
	.seh_endproc
	.section .rdata,"dr"
.LC5:
	.ascii ";\0"
	.section	.text$_ZN4text2InERSt14basic_ifstreamIcSt11char_traitsIcEE,"x"
	.linkonce discard
	.align 2
	.globl	_ZN4text2InERSt14basic_ifstreamIcSt11char_traitsIcEE
	.def	_ZN4text2InERSt14basic_ifstreamIcSt11char_traitsIcEE;	.scl	2;	.type	32;	.endef
	.seh_proc	_ZN4text2InERSt14basic_ifstreamIcSt11char_traitsIcEE
_ZN4text2InERSt14basic_ifstreamIcSt11char_traitsIcEE:
.LFB1701:
	pushq	%rbp
	.seh_pushreg	%rbp
	pushq	%rbx
	.seh_pushreg	%rbx
	subq	$104, %rsp
	.seh_stackalloc	104
	leaq	128(%rsp), %rbp
	.seh_setframe	%rbp, 128
	.seh_endprologue
	movq	%rcx, 0(%rbp)
	movq	%rdx, 8(%rbp)
	leaq	-96(%rbp), %rax
	movq	%rax, %rcx
	call	_ZNSt7__cxx1112basic_stringIcSt11char_traitsIcESaIcEEC1Ev
.L18:
	movq	8(%rbp), %rcx
	leaq	-96(%rbp), %rax
	movq	%rax, %rdx
.LEHB2:
	call	_ZStrsIcSt11char_traitsIcESaIcEERSt13basic_istreamIT_T0_ES7_RNSt7__cxx1112basic_stringIS4_S5_T1_EE
	movq	(%rax), %rdx
	subq	$24, %rdx
	movq	(%rdx), %rdx
	addq	%rdx, %rax
	movq	%rax, %rcx
	call	_ZNKSt9basic_iosIcSt11char_traitsIcEEcvbEv
	testb	%al, %al
	je	.L16
	leaq	-96(%rbp), %rax
	leaq	.LC5(%rip), %rdx
	movq	%rax, %rcx
	call	_ZSteqIcSt11char_traitsIcESaIcEEbRKNSt7__cxx1112basic_stringIT_T0_T1_EEPKS5_
	testb	%al, %al
	jne	.L24
	leaq	-64(%rbp), %rax
	leaq	-96(%rbp), %rdx
	leaq	.LC2(%rip), %r8
	movq	%rax, %rcx
	call	_ZStplIcSt11char_traitsIcESaIcEENSt7__cxx1112basic_stringIT_T0_T1_EERKS8_PKS5_
.LEHE2:
	movq	0(%rbp), %rax
	leaq	8(%rax), %rcx
	leaq	-64(%rbp), %rax
	movq	%rax, %rdx
.LEHB3:
	call	_ZNSt7__cxx1112basic_stringIcSt11char_traitsIcESaIcEEpLERKS4_
.LEHE3:
	leaq	-64(%rbp), %rax
	movq	%rax, %rcx
	call	_ZNSt7__cxx1112basic_stringIcSt11char_traitsIcESaIcEED1Ev
	jmp	.L18
.L24:
	nop
.L16:
	movq	0(%rbp), %rax
	movq	(%rax), %rax
	movq	(%rax), %rax
	movq	0(%rbp), %rcx
.LEHB4:
	call	*%rax
.LEHE4:
	leaq	-96(%rbp), %rax
	movq	%rax, %rcx
	call	_ZNSt7__cxx1112basic_stringIcSt11char_traitsIcESaIcEED1Ev
	jmp	.L23
.L22:
	movq	%rax, %rbx
	leaq	-64(%rbp), %rax
	movq	%rax, %rcx
	call	_ZNSt7__cxx1112basic_stringIcSt11char_traitsIcESaIcEED1Ev
	jmp	.L20
.L21:
	movq	%rax, %rbx
.L20:
	leaq	-96(%rbp), %rax
	movq	%rax, %rcx
	call	_ZNSt7__cxx1112basic_stringIcSt11char_traitsIcESaIcEED1Ev
	movq	%rbx, %rax
	movq	%rax, %rcx
.LEHB5:
	call	_Unwind_Resume
	nop
.LEHE5:
.L23:
	addq	$104, %rsp
	popq	%rbx
	popq	%rbp
	ret
	.seh_handler	__gxx_personality_seh0, @unwind, @except
	.seh_handlerdata
.LLSDA1701:
	.byte	0xff
	.byte	0xff
	.byte	0x1
	.uleb128 .LLSDACSE1701-.LLSDACSB1701
.LLSDACSB1701:
	.uleb128 .LEHB2-.LFB1701
	.uleb128 .LEHE2-.LEHB2
	.uleb128 .L21-.LFB1701
	.uleb128 0
	.uleb128 .LEHB3-.LFB1701
	.uleb128 .LEHE3-.LEHB3
	.uleb128 .L22-.LFB1701
	.uleb128 0
	.uleb128 .LEHB4-.LFB1701
	.uleb128 .LEHE4-.LEHB4
	.uleb128 .L21-.LFB1701
	.uleb128 0
	.uleb128 .LEHB5-.LFB1701
	.uleb128 .LEHE5-.LEHB5
	.uleb128 0
	.uleb128 0
.LLSDACSE1701:
	.section	.text$_ZN4text2InERSt14basic_ifstreamIcSt11char_traitsIcEE,"x"
	.linkonce discard
	.seh_endproc
	.section	.text$_ZN4text5InRndEv,"x"
	.linkonce discard
	.align 2
	.globl	_ZN4text5InRndEv
	.def	_ZN4text5InRndEv;	.scl	2;	.type	32;	.endef
	.seh_proc	_ZN4text5InRndEv
_ZN4text5InRndEv:
.LFB1702:
	pushq	%rbp
	.seh_pushreg	%rbp
	movq	%rsp, %rbp
	.seh_setframe	%rbp, 0
	subq	$64, %rsp
	.seh_stackalloc	64
	.seh_endprologue
	movq	%rcx, 16(%rbp)
	leaq	-32(%rbp), %rax
	movq	%rax, %rcx
	call	_Z6RandomB5cxx11v
	movq	16(%rbp), %rax
	leaq	8(%rax), %rcx
	leaq	-32(%rbp), %rax
	movq	%rax, %rdx
	call	_ZNSt7__cxx1112basic_stringIcSt11char_traitsIcESaIcEEaSEOS4_
	leaq	-32(%rbp), %rax
	movq	%rax, %rcx
	call	_ZNSt7__cxx1112basic_stringIcSt11char_traitsIcESaIcEED1Ev
	movq	16(%rbp), %rax
	movq	(%rax), %rax
	movq	(%rax), %rax
	movq	16(%rbp), %rcx
	call	*%rax
	nop
	addq	$64, %rsp
	popq	%rbp
	ret
	.seh_endproc
	.section .rdata,"dr"
.LC6:
	.ascii "SOMETHING WENT WRONG\12\0"
	.section	.text$_ZN4text3OutERSt14basic_ofstreamIcSt11char_traitsIcEE,"x"
	.linkonce discard
	.align 2
	.globl	_ZN4text3OutERSt14basic_ofstreamIcSt11char_traitsIcEE
	.def	_ZN4text3OutERSt14basic_ofstreamIcSt11char_traitsIcEE;	.scl	2;	.type	32;	.endef
	.seh_proc	_ZN4text3OutERSt14basic_ofstreamIcSt11char_traitsIcEE
_ZN4text3OutERSt14basic_ofstreamIcSt11char_traitsIcEE:
.LFB1706:
	pushq	%rbp
	.seh_pushreg	%rbp
	movq	%rsp, %rbp
	.seh_setframe	%rbp, 0
	subq	$32, %rsp
	.seh_stackalloc	32
	.seh_endprologue
	movq	%rcx, 16(%rbp)
	movq	%rdx, 24(%rbp)
	movq	24(%rbp), %rax
	leaq	.LC6(%rip), %rdx
	movq	%rax, %rcx
	call	_ZStlsISt11char_traitsIcEERSt13basic_ostreamIcT_ES5_PKc
	nop
	addq	$32, %rsp
	popq	%rbp
	ret
	.seh_endproc
	.section	.text$_ZN4text8QuotientEv,"x"
	.linkonce discard
	.align 2
	.globl	_ZN4text8QuotientEv
	.def	_ZN4text8QuotientEv;	.scl	2;	.type	32;	.endef
	.seh_proc	_ZN4text8QuotientEv
_ZN4text8QuotientEv:
.LFB1707:
	pushq	%rbp
	.seh_pushreg	%rbp
	movq	%rsp, %rbp
	.seh_setframe	%rbp, 0
	subq	$96, %rsp
	.seh_stackalloc	96
	movaps	%xmm6, -16(%rbp)
	.seh_savexmm	%xmm6, 80
	.seh_endprologue
	movq	%rcx, 16(%rbp)
	movq	$0, -24(%rbp)
	movq	16(%rbp), %rax
	addq	$8, %rax
	movq	%rax, -32(%rbp)
	movq	-32(%rbp), %rax
	movq	%rax, %rcx
	call	_ZNSt7__cxx1112basic_stringIcSt11char_traitsIcESaIcEE5beginEv
	movq	%rax, -48(%rbp)
	movq	-32(%rbp), %rax
	movq	%rax, %rcx
	call	_ZNSt7__cxx1112basic_stringIcSt11char_traitsIcESaIcEE3endEv
	movq	%rax, -56(%rbp)
.L29:
	leaq	-56(%rbp), %rdx
	leaq	-48(%rbp), %rax
	movq	%rax, %rcx
	call	_ZN9__gnu_cxxneIPcNSt7__cxx1112basic_stringIcSt11char_traitsIcESaIcEEEEEbRKNS_17__normal_iteratorIT_T0_EESD_
	testb	%al, %al
	je	.L28
	leaq	-48(%rbp), %rax
	movq	%rax, %rcx
	call	_ZNK9__gnu_cxx17__normal_iteratorIPcNSt7__cxx1112basic_stringIcSt11char_traitsIcESaIcEEEEdeEv
	movzbl	(%rax), %eax
	movb	%al, -33(%rbp)
	movsbq	-33(%rbp), %rax
	addq	%rax, -24(%rbp)
	leaq	-48(%rbp), %rax
	movq	%rax, %rcx
	call	_ZN9__gnu_cxx17__normal_iteratorIPcNSt7__cxx1112basic_stringIcSt11char_traitsIcESaIcEEEEppEv
	jmp	.L29
.L28:
	cvtsi2sdq	-24(%rbp), %xmm6
	movq	16(%rbp), %rax
	addq	$8, %rax
	movq	%rax, %rcx
	call	_ZNKSt7__cxx1112basic_stringIcSt11char_traitsIcESaIcEE4sizeEv
	movq	%rax, %rdx
	testq	%rdx, %rdx
	js	.L30
	cvtsi2sdq	%rdx, %xmm0
	jmp	.L31
.L30:
	movq	%rdx, %rax
	shrq	%rax
	andl	$1, %edx
	orq	%rdx, %rax
	cvtsi2sdq	%rax, %xmm0
	addsd	%xmm0, %xmm0
.L31:
	divsd	%xmm0, %xmm6
	movapd	%xmm6, %xmm0
	movq	16(%rbp), %rax
	movsd	%xmm0, 72(%rax)
	nop
	movaps	-16(%rbp), %xmm6
	addq	$96, %rsp
	popq	%rbp
	ret
	.seh_endproc
	.section	.text$_ZN11cyclicShift2InERSt14basic_ifstreamIcSt11char_traitsIcEE,"x"
	.linkonce discard
	.align 2
	.globl	_ZN11cyclicShift2InERSt14basic_ifstreamIcSt11char_traitsIcEE
	.def	_ZN11cyclicShift2InERSt14basic_ifstreamIcSt11char_traitsIcEE;	.scl	2;	.type	32;	.endef
	.seh_proc	_ZN11cyclicShift2InERSt14basic_ifstreamIcSt11char_traitsIcEE
_ZN11cyclicShift2InERSt14basic_ifstreamIcSt11char_traitsIcEE:
.LFB1708:
	pushq	%rbp
	.seh_pushreg	%rbp
	pushq	%rbx
	.seh_pushreg	%rbx
	subq	$104, %rsp
	.seh_stackalloc	104
	leaq	128(%rsp), %rbp
	.seh_setframe	%rbp, 128
	.seh_endprologue
	movq	%rcx, 0(%rbp)
	movq	%rdx, 8(%rbp)
	movq	8(%rbp), %rax
	movq	0(%rbp), %rdx
	addq	$80, %rdx
	movq	%rax, %rcx
.LEHB6:
	call	_ZNSirsERi
.LEHE6:
	leaq	-96(%rbp), %rax
	movq	%rax, %rcx
	call	_ZNSt7__cxx1112basic_stringIcSt11char_traitsIcESaIcEEC1Ev
.L35:
	movq	8(%rbp), %rcx
	leaq	-96(%rbp), %rax
	movq	%rax, %rdx
.LEHB7:
	call	_ZStrsIcSt11char_traitsIcESaIcEERSt13basic_istreamIT_T0_ES7_RNSt7__cxx1112basic_stringIS4_S5_T1_EE
	movq	(%rax), %rdx
	subq	$24, %rdx
	movq	(%rdx), %rdx
	addq	%rdx, %rax
	movq	%rax, %rcx
	call	_ZNKSt9basic_iosIcSt11char_traitsIcEEcvbEv
	testb	%al, %al
	je	.L33
	leaq	-96(%rbp), %rax
	leaq	.LC5(%rip), %rdx
	movq	%rax, %rcx
	call	_ZSteqIcSt11char_traitsIcESaIcEEbRKNSt7__cxx1112basic_stringIT_T0_T1_EEPKS5_
	testb	%al, %al
	jne	.L41
	leaq	-64(%rbp), %rax
	leaq	-96(%rbp), %rdx
	leaq	.LC2(%rip), %r8
	movq	%rax, %rcx
	call	_ZStplIcSt11char_traitsIcESaIcEENSt7__cxx1112basic_stringIT_T0_T1_EERKS8_PKS5_
.LEHE7:
	movq	0(%rbp), %rax
	leaq	8(%rax), %rcx
	leaq	-64(%rbp), %rax
	movq	%rax, %rdx
.LEHB8:
	call	_ZNSt7__cxx1112basic_stringIcSt11char_traitsIcESaIcEEpLERKS4_
.LEHE8:
	leaq	-64(%rbp), %rax
	movq	%rax, %rcx
	call	_ZNSt7__cxx1112basic_stringIcSt11char_traitsIcESaIcEED1Ev
	jmp	.L35
.L41:
	nop
.L33:
	movq	0(%rbp), %rax
	movq	(%rax), %rax
	movq	(%rax), %rax
	movq	0(%rbp), %rcx
.LEHB9:
	call	*%rax
.LEHE9:
	leaq	-96(%rbp), %rax
	movq	%rax, %rcx
	call	_ZNSt7__cxx1112basic_stringIcSt11char_traitsIcESaIcEED1Ev
	jmp	.L40
.L39:
	movq	%rax, %rbx
	leaq	-64(%rbp), %rax
	movq	%rax, %rcx
	call	_ZNSt7__cxx1112basic_stringIcSt11char_traitsIcESaIcEED1Ev
	jmp	.L37
.L38:
	movq	%rax, %rbx
.L37:
	leaq	-96(%rbp), %rax
	movq	%rax, %rcx
	call	_ZNSt7__cxx1112basic_stringIcSt11char_traitsIcESaIcEED1Ev
	movq	%rbx, %rax
	movq	%rax, %rcx
.LEHB10:
	call	_Unwind_Resume
	nop
.LEHE10:
.L40:
	addq	$104, %rsp
	popq	%rbx
	popq	%rbp
	ret
	.seh_handler	__gxx_personality_seh0, @unwind, @except
	.seh_handlerdata
.LLSDA1708:
	.byte	0xff
	.byte	0xff
	.byte	0x1
	.uleb128 .LLSDACSE1708-.LLSDACSB1708
.LLSDACSB1708:
	.uleb128 .LEHB6-.LFB1708
	.uleb128 .LEHE6-.LEHB6
	.uleb128 0
	.uleb128 0
	.uleb128 .LEHB7-.LFB1708
	.uleb128 .LEHE7-.LEHB7
	.uleb128 .L38-.LFB1708
	.uleb128 0
	.uleb128 .LEHB8-.LFB1708
	.uleb128 .LEHE8-.LEHB8
	.uleb128 .L39-.LFB1708
	.uleb128 0
	.uleb128 .LEHB9-.LFB1708
	.uleb128 .LEHE9-.LEHB9
	.uleb128 .L38-.LFB1708
	.uleb128 0
	.uleb128 .LEHB10-.LFB1708
	.uleb128 .LEHE10-.LEHB10
	.uleb128 0
	.uleb128 0
.LLSDACSE1708:
	.section	.text$_ZN11cyclicShift2InERSt14basic_ifstreamIcSt11char_traitsIcEE,"x"
	.linkonce discard
	.seh_endproc
	.section	.text$_ZN11cyclicShift5InRndEv,"x"
	.linkonce discard
	.align 2
	.globl	_ZN11cyclicShift5InRndEv
	.def	_ZN11cyclicShift5InRndEv;	.scl	2;	.type	32;	.endef
	.seh_proc	_ZN11cyclicShift5InRndEv
_ZN11cyclicShift5InRndEv:
.LFB1709:
	pushq	%rbp
	.seh_pushreg	%rbp
	movq	%rsp, %rbp
	.seh_setframe	%rbp, 0
	subq	$64, %rsp
	.seh_stackalloc	64
	.seh_endprologue
	movq	%rcx, 16(%rbp)
	leaq	-32(%rbp), %rax
	movq	%rax, %rcx
	call	_Z6RandomB5cxx11v
	movq	16(%rbp), %rax
	leaq	8(%rax), %rcx
	leaq	-32(%rbp), %rax
	movq	%rax, %rdx
	call	_ZNSt7__cxx1112basic_stringIcSt11char_traitsIcESaIcEEaSEOS4_
	leaq	-32(%rbp), %rax
	movq	%rax, %rcx
	call	_ZNSt7__cxx1112basic_stringIcSt11char_traitsIcESaIcEED1Ev
	movq	16(%rbp), %rcx
	call	_ZN11cyclicShift11RandEncryptEv
	nop
	addq	$64, %rsp
	popq	%rbp
	ret
	.seh_endproc
	.section .rdata,"dr"
.LC7:
	.ascii "(n = \0"
.LC8:
	.ascii ") \0"
	.section	.text$_ZN11cyclicShift7EncryptEv,"x"
	.linkonce discard
	.align 2
	.globl	_ZN11cyclicShift7EncryptEv
	.def	_ZN11cyclicShift7EncryptEv;	.scl	2;	.type	32;	.endef
	.seh_proc	_ZN11cyclicShift7EncryptEv
_ZN11cyclicShift7EncryptEv:
.LFB1710:
	pushq	%rbp
	.seh_pushreg	%rbp
	pushq	%rbx
	.seh_pushreg	%rbx
	subq	$168, %rsp
	.seh_stackalloc	168
	leaq	128(%rsp), %rbp
	.seh_setframe	%rbp, 128
	.seh_endprologue
	movq	%rcx, 64(%rbp)
	movq	64(%rbp), %rax
	movl	80(%rax), %edx
	leaq	-16(%rbp), %rax
	movq	%rax, %rcx
.LEHB11:
	call	_ZNSt7__cxx119to_stringEi
.LEHE11:
	leaq	-48(%rbp), %rax
	leaq	-16(%rbp), %rdx
	movq	%rdx, %r8
	leaq	.LC7(%rip), %rdx
	movq	%rax, %rcx
.LEHB12:
	call	_ZStplIcSt11char_traitsIcESaIcEENSt7__cxx1112basic_stringIT_T0_T1_EEPKS5_OS8_
.LEHE12:
	leaq	-80(%rbp), %rax
	leaq	-48(%rbp), %rdx
	leaq	.LC8(%rip), %r8
	movq	%rax, %rcx
.LEHB13:
	call	_ZStplIcSt11char_traitsIcESaIcEENSt7__cxx1112basic_stringIT_T0_T1_EEOS8_PKS5_
.LEHE13:
	movq	64(%rbp), %rax
	leaq	40(%rax), %rcx
	leaq	-80(%rbp), %rax
	movq	%rax, %rdx
.LEHB14:
	call	_ZNSt7__cxx1112basic_stringIcSt11char_traitsIcESaIcEEpLERKS4_
.LEHE14:
	leaq	-80(%rbp), %rax
	movq	%rax, %rcx
	call	_ZNSt7__cxx1112basic_stringIcSt11char_traitsIcESaIcEED1Ev
	leaq	-48(%rbp), %rax
	movq	%rax, %rcx
	call	_ZNSt7__cxx1112basic_stringIcSt11char_traitsIcESaIcEED1Ev
	leaq	-16(%rbp), %rax
	movq	%rax, %rcx
	call	_ZNSt7__cxx1112basic_stringIcSt11char_traitsIcESaIcEED1Ev
	movq	64(%rbp), %rax
	addq	$8, %rax
	movq	%rax, 24(%rbp)
	movq	24(%rbp), %rax
	movq	%rax, %rcx
	call	_ZNSt7__cxx1112basic_stringIcSt11char_traitsIcESaIcEE5beginEv
	movq	%rax, -88(%rbp)
	movq	24(%rbp), %rax
	movq	%rax, %rcx
	call	_ZNSt7__cxx1112basic_stringIcSt11char_traitsIcESaIcEE3endEv
	movq	%rax, -96(%rbp)
.L47:
	leaq	-96(%rbp), %rdx
	leaq	-88(%rbp), %rax
	movq	%rax, %rcx
	call	_ZN9__gnu_cxxneIPcNSt7__cxx1112basic_stringIcSt11char_traitsIcESaIcEEEEEbRKNS_17__normal_iteratorIT_T0_EESD_
	testb	%al, %al
	je	.L44
	leaq	-88(%rbp), %rax
	movq	%rax, %rcx
	call	_ZNK9__gnu_cxx17__normal_iteratorIPcNSt7__cxx1112basic_stringIcSt11char_traitsIcESaIcEEEEdeEv
	movzbl	(%rax), %eax
	movb	%al, 23(%rbp)
	cmpb	$32, 23(%rbp)
	jne	.L45
	movq	64(%rbp), %rax
	addq	$40, %rax
	movl	$32, %edx
	movq	%rax, %rcx
.LEHB15:
	call	_ZNSt7__cxx1112basic_stringIcSt11char_traitsIcESaIcEEpLEc
	jmp	.L46
.L45:
	movq	64(%rbp), %rax
	movl	80(%rax), %eax
	movl	%eax, %edx
	movzbl	23(%rbp), %eax
	addl	%edx, %eax
	movsbl	%al, %eax
	movq	64(%rbp), %rdx
	leaq	40(%rdx), %rcx
	movl	%eax, %edx
	call	_ZNSt7__cxx1112basic_stringIcSt11char_traitsIcESaIcEEpLEc
.L46:
	leaq	-88(%rbp), %rax
	movq	%rax, %rcx
	call	_ZN9__gnu_cxx17__normal_iteratorIPcNSt7__cxx1112basic_stringIcSt11char_traitsIcESaIcEEEEppEv
	jmp	.L47
.L44:
	movq	64(%rbp), %rax
	movq	%rax, %rcx
	call	_ZN4text8QuotientEv
	jmp	.L54
.L53:
	movq	%rax, %rbx
	leaq	-80(%rbp), %rax
	movq	%rax, %rcx
	call	_ZNSt7__cxx1112basic_stringIcSt11char_traitsIcESaIcEED1Ev
	jmp	.L49
.L52:
	movq	%rax, %rbx
.L49:
	leaq	-48(%rbp), %rax
	movq	%rax, %rcx
	call	_ZNSt7__cxx1112basic_stringIcSt11char_traitsIcESaIcEED1Ev
	jmp	.L50
.L51:
	movq	%rax, %rbx
.L50:
	leaq	-16(%rbp), %rax
	movq	%rax, %rcx
	call	_ZNSt7__cxx1112basic_stringIcSt11char_traitsIcESaIcEED1Ev
	movq	%rbx, %rax
	movq	%rax, %rcx
	call	_Unwind_Resume
	nop
.LEHE15:
.L54:
	addq	$168, %rsp
	popq	%rbx
	popq	%rbp
	ret
	.seh_handler	__gxx_personality_seh0, @unwind, @except
	.seh_handlerdata
.LLSDA1710:
	.byte	0xff
	.byte	0xff
	.byte	0x1
	.uleb128 .LLSDACSE1710-.LLSDACSB1710
.LLSDACSB1710:
	.uleb128 .LEHB11-.LFB1710
	.uleb128 .LEHE11-.LEHB11
	.uleb128 0
	.uleb128 0
	.uleb128 .LEHB12-.LFB1710
	.uleb128 .LEHE12-.LEHB12
	.uleb128 .L51-.LFB1710
	.uleb128 0
	.uleb128 .LEHB13-.LFB1710
	.uleb128 .LEHE13-.LEHB13
	.uleb128 .L52-.LFB1710
	.uleb128 0
	.uleb128 .LEHB14-.LFB1710
	.uleb128 .LEHE14-.LEHB14
	.uleb128 .L53-.LFB1710
	.uleb128 0
	.uleb128 .LEHB15-.LFB1710
	.uleb128 .LEHE15-.LEHB15
	.uleb128 0
	.uleb128 0
.LLSDACSE1710:
	.section	.text$_ZN11cyclicShift7EncryptEv,"x"
	.linkonce discard
	.seh_endproc
	.section	.text$_ZN11cyclicShift11RandEncryptEv,"x"
	.linkonce discard
	.align 2
	.globl	_ZN11cyclicShift11RandEncryptEv
	.def	_ZN11cyclicShift11RandEncryptEv;	.scl	2;	.type	32;	.endef
	.seh_proc	_ZN11cyclicShift11RandEncryptEv
_ZN11cyclicShift11RandEncryptEv:
.LFB1711:
	pushq	%rbp
	.seh_pushreg	%rbp
	pushq	%rbx
	.seh_pushreg	%rbx
	subq	$168, %rsp
	.seh_stackalloc	168
	leaq	128(%rsp), %rbp
	.seh_setframe	%rbp, 128
	.seh_endprologue
	movq	%rcx, 64(%rbp)
	call	rand
	movl	%eax, %ecx
	movl	$1717986919, %edx
	movl	%ecx, %eax
	imull	%edx
	sarl	$2, %edx
	movl	%ecx, %eax
	sarl	$31, %eax
	subl	%eax, %edx
	movl	%edx, %eax
	sall	$2, %eax
	addl	%edx, %eax
	addl	%eax, %eax
	subl	%eax, %ecx
	movl	%ecx, %edx
	addl	$1, %edx
	movq	64(%rbp), %rax
	movl	%edx, 80(%rax)
	movq	64(%rbp), %rax
	movl	80(%rax), %edx
	leaq	-16(%rbp), %rax
	movq	%rax, %rcx
.LEHB16:
	call	_ZNSt7__cxx119to_stringEi
.LEHE16:
	leaq	-48(%rbp), %rax
	leaq	-16(%rbp), %rdx
	movq	%rdx, %r8
	leaq	.LC7(%rip), %rdx
	movq	%rax, %rcx
.LEHB17:
	call	_ZStplIcSt11char_traitsIcESaIcEENSt7__cxx1112basic_stringIT_T0_T1_EEPKS5_OS8_
.LEHE17:
	leaq	-80(%rbp), %rax
	leaq	-48(%rbp), %rdx
	leaq	.LC8(%rip), %r8
	movq	%rax, %rcx
.LEHB18:
	call	_ZStplIcSt11char_traitsIcESaIcEENSt7__cxx1112basic_stringIT_T0_T1_EEOS8_PKS5_
.LEHE18:
	movq	64(%rbp), %rax
	leaq	40(%rax), %rcx
	leaq	-80(%rbp), %rax
	movq	%rax, %rdx
.LEHB19:
	call	_ZNSt7__cxx1112basic_stringIcSt11char_traitsIcESaIcEEpLERKS4_
.LEHE19:
	leaq	-80(%rbp), %rax
	movq	%rax, %rcx
	call	_ZNSt7__cxx1112basic_stringIcSt11char_traitsIcESaIcEED1Ev
	leaq	-48(%rbp), %rax
	movq	%rax, %rcx
	call	_ZNSt7__cxx1112basic_stringIcSt11char_traitsIcESaIcEED1Ev
	leaq	-16(%rbp), %rax
	movq	%rax, %rcx
	call	_ZNSt7__cxx1112basic_stringIcSt11char_traitsIcESaIcEED1Ev
	movq	64(%rbp), %rax
	addq	$8, %rax
	movq	%rax, 24(%rbp)
	movq	24(%rbp), %rax
	movq	%rax, %rcx
	call	_ZNSt7__cxx1112basic_stringIcSt11char_traitsIcESaIcEE5beginEv
	movq	%rax, -88(%rbp)
	movq	24(%rbp), %rax
	movq	%rax, %rcx
	call	_ZNSt7__cxx1112basic_stringIcSt11char_traitsIcESaIcEE3endEv
	movq	%rax, -96(%rbp)
.L59:
	leaq	-96(%rbp), %rdx
	leaq	-88(%rbp), %rax
	movq	%rax, %rcx
	call	_ZN9__gnu_cxxneIPcNSt7__cxx1112basic_stringIcSt11char_traitsIcESaIcEEEEEbRKNS_17__normal_iteratorIT_T0_EESD_
	testb	%al, %al
	je	.L56
	leaq	-88(%rbp), %rax
	movq	%rax, %rcx
	call	_ZNK9__gnu_cxx17__normal_iteratorIPcNSt7__cxx1112basic_stringIcSt11char_traitsIcESaIcEEEEdeEv
	movzbl	(%rax), %eax
	movb	%al, 23(%rbp)
	cmpb	$32, 23(%rbp)
	jne	.L57
	movq	64(%rbp), %rax
	addq	$40, %rax
	movl	$32, %edx
	movq	%rax, %rcx
.LEHB20:
	call	_ZNSt7__cxx1112basic_stringIcSt11char_traitsIcESaIcEEpLEc
	jmp	.L58
.L57:
	movq	64(%rbp), %rax
	movl	80(%rax), %eax
	movl	%eax, %edx
	movzbl	23(%rbp), %eax
	addl	%edx, %eax
	movsbl	%al, %eax
	movq	64(%rbp), %rdx
	leaq	40(%rdx), %rcx
	movl	%eax, %edx
	call	_ZNSt7__cxx1112basic_stringIcSt11char_traitsIcESaIcEEpLEc
.L58:
	leaq	-88(%rbp), %rax
	movq	%rax, %rcx
	call	_ZN9__gnu_cxx17__normal_iteratorIPcNSt7__cxx1112basic_stringIcSt11char_traitsIcESaIcEEEEppEv
	jmp	.L59
.L56:
	movq	64(%rbp), %rax
	movq	%rax, %rcx
	call	_ZN4text8QuotientEv
	jmp	.L66
.L65:
	movq	%rax, %rbx
	leaq	-80(%rbp), %rax
	movq	%rax, %rcx
	call	_ZNSt7__cxx1112basic_stringIcSt11char_traitsIcESaIcEED1Ev
	jmp	.L61
.L64:
	movq	%rax, %rbx
.L61:
	leaq	-48(%rbp), %rax
	movq	%rax, %rcx
	call	_ZNSt7__cxx1112basic_stringIcSt11char_traitsIcESaIcEED1Ev
	jmp	.L62
.L63:
	movq	%rax, %rbx
.L62:
	leaq	-16(%rbp), %rax
	movq	%rax, %rcx
	call	_ZNSt7__cxx1112basic_stringIcSt11char_traitsIcESaIcEED1Ev
	movq	%rbx, %rax
	movq	%rax, %rcx
	call	_Unwind_Resume
	nop
.LEHE20:
.L66:
	addq	$168, %rsp
	popq	%rbx
	popq	%rbp
	ret
	.seh_handler	__gxx_personality_seh0, @unwind, @except
	.seh_handlerdata
.LLSDA1711:
	.byte	0xff
	.byte	0xff
	.byte	0x1
	.uleb128 .LLSDACSE1711-.LLSDACSB1711
.LLSDACSB1711:
	.uleb128 .LEHB16-.LFB1711
	.uleb128 .LEHE16-.LEHB16
	.uleb128 0
	.uleb128 0
	.uleb128 .LEHB17-.LFB1711
	.uleb128 .LEHE17-.LEHB17
	.uleb128 .L63-.LFB1711
	.uleb128 0
	.uleb128 .LEHB18-.LFB1711
	.uleb128 .LEHE18-.LEHB18
	.uleb128 .L64-.LFB1711
	.uleb128 0
	.uleb128 .LEHB19-.LFB1711
	.uleb128 .LEHE19-.LEHB19
	.uleb128 .L65-.LFB1711
	.uleb128 0
	.uleb128 .LEHB20-.LFB1711
	.uleb128 .LEHE20-.LEHB20
	.uleb128 0
	.uleb128 0
.LLSDACSE1711:
	.section	.text$_ZN11cyclicShift11RandEncryptEv,"x"
	.linkonce discard
	.seh_endproc
	.section .rdata,"dr"
.LC9:
	.ascii "Text: \0"
	.align 8
.LC10:
	.ascii "\12Encryption by cyclically shifting the code of each character by \0"
.LC11:
	.ascii ": \0"
	.section	.text$_ZN11cyclicShift3OutERSt14basic_ofstreamIcSt11char_traitsIcEE,"x"
	.linkonce discard
	.align 2
	.globl	_ZN11cyclicShift3OutERSt14basic_ofstreamIcSt11char_traitsIcEE
	.def	_ZN11cyclicShift3OutERSt14basic_ofstreamIcSt11char_traitsIcEE;	.scl	2;	.type	32;	.endef
	.seh_proc	_ZN11cyclicShift3OutERSt14basic_ofstreamIcSt11char_traitsIcEE
_ZN11cyclicShift3OutERSt14basic_ofstreamIcSt11char_traitsIcEE:
.LFB1712:
	pushq	%rbp
	.seh_pushreg	%rbp
	movq	%rsp, %rbp
	.seh_setframe	%rbp, 0
	subq	$32, %rsp
	.seh_stackalloc	32
	.seh_endprologue
	movq	%rcx, 16(%rbp)
	movq	%rdx, 24(%rbp)
	movq	24(%rbp), %rax
	leaq	.LC9(%rip), %rdx
	movq	%rax, %rcx
	call	_ZStlsISt11char_traitsIcEERSt13basic_ostreamIcT_ES5_PKc
	movq	%rax, %rcx
	movq	16(%rbp), %rax
	addq	$8, %rax
	movq	%rax, %rdx
	call	_ZStlsIcSt11char_traitsIcESaIcEERSt13basic_ostreamIT_T0_ES7_RKNSt7__cxx1112basic_stringIS4_S5_T1_EE
	leaq	.LC10(%rip), %rdx
	movq	%rax, %rcx
	call	_ZStlsISt11char_traitsIcEERSt13basic_ostreamIcT_ES5_PKc
	movq	%rax, %rcx
	movq	16(%rbp), %rax
	movl	80(%rax), %eax
	movl	%eax, %edx
	call	_ZNSolsEi
	leaq	.LC11(%rip), %rdx
	movq	%rax, %rcx
	call	_ZStlsISt11char_traitsIcEERSt13basic_ostreamIcT_ES5_PKc
	movq	%rax, %rcx
	movq	16(%rbp), %rax
	addq	$40, %rax
	movq	%rax, %rdx
	call	_ZStlsIcSt11char_traitsIcESaIcEERSt13basic_ostreamIT_T0_ES7_RKNSt7__cxx1112basic_stringIS4_S5_T1_EE
	leaq	.LC4(%rip), %rdx
	movq	%rax, %rcx
	call	_ZStlsISt11char_traitsIcEERSt13basic_ostreamIcT_ES5_PKc
	nop
	addq	$32, %rsp
	popq	%rbp
	ret
	.seh_endproc
	.section .rdata,"dr"
	.align 8
.LC12:
	.ascii "abcdefghijklmnopqrstuvwxyzABCDEFGHIJKLMNOPQRSTUVWXYZ\0"
	.align 8
.LC13:
	.ascii "qwertyuiopasdfghjklzxcvbnmQWERTYUIOPASDFGHJKLZXCVBNM\0"
	.section	.text$_ZN20charecterReplacement7EncryptEv,"x"
	.linkonce discard
	.align 2
	.globl	_ZN20charecterReplacement7EncryptEv
	.def	_ZN20charecterReplacement7EncryptEv;	.scl	2;	.type	32;	.endef
	.seh_proc	_ZN20charecterReplacement7EncryptEv
_ZN20charecterReplacement7EncryptEv:
.LFB1713:
	pushq	%rbp
	.seh_pushreg	%rbp
	pushq	%rbx
	.seh_pushreg	%rbx
	subq	$136, %rsp
	.seh_stackalloc	136
	leaq	128(%rsp), %rbp
	.seh_setframe	%rbp, 128
	.seh_endprologue
	movq	%rcx, 32(%rbp)
	leaq	-11(%rbp), %rax
	movq	%rax, %rcx
	call	_ZNSaIcEC1Ev
	leaq	-11(%rbp), %rdx
	leaq	-48(%rbp), %rax
	movq	%rdx, %r8
	leaq	.LC12(%rip), %rdx
	movq	%rax, %rcx
.LEHB21:
	call	_ZNSt7__cxx1112basic_stringIcSt11char_traitsIcESaIcEEC1EPKcRKS3_
.LEHE21:
	leaq	-11(%rbp), %rax
	movq	%rax, %rcx
	call	_ZNSaIcED1Ev
	leaq	-10(%rbp), %rax
	movq	%rax, %rcx
	call	_ZNSaIcEC1Ev
	leaq	-10(%rbp), %rdx
	leaq	-80(%rbp), %rax
	movq	%rdx, %r8
	leaq	.LC13(%rip), %rdx
	movq	%rax, %rcx
.LEHB22:
	call	_ZNSt7__cxx1112basic_stringIcSt11char_traitsIcESaIcEEC1EPKcRKS3_
.LEHE22:
	leaq	-10(%rbp), %rax
	movq	%rax, %rcx
	call	_ZNSaIcED1Ev
	movq	32(%rbp), %rax
	addq	$8, %rax
	movq	%rax, -8(%rbp)
	movq	-8(%rbp), %rax
	movq	%rax, %rcx
	call	_ZNSt7__cxx1112basic_stringIcSt11char_traitsIcESaIcEE5beginEv
	movq	%rax, -88(%rbp)
	movq	-8(%rbp), %rax
	movq	%rax, %rcx
	call	_ZNSt7__cxx1112basic_stringIcSt11char_traitsIcESaIcEE3endEv
	movq	%rax, -96(%rbp)
.L73:
	leaq	-96(%rbp), %rdx
	leaq	-88(%rbp), %rax
	movq	%rax, %rcx
	call	_ZN9__gnu_cxxneIPcNSt7__cxx1112basic_stringIcSt11char_traitsIcESaIcEEEEEbRKNS_17__normal_iteratorIT_T0_EESD_
	testb	%al, %al
	je	.L69
	leaq	-88(%rbp), %rax
	movq	%rax, %rcx
	call	_ZNK9__gnu_cxx17__normal_iteratorIPcNSt7__cxx1112basic_stringIcSt11char_traitsIcESaIcEEEEdeEv
	movzbl	(%rax), %eax
	movb	%al, -9(%rbp)
	cmpb	$32, -9(%rbp)
	jne	.L70
	movq	32(%rbp), %rax
	addq	$40, %rax
	leaq	.LC2(%rip), %rdx
	movq	%rax, %rcx
.LEHB23:
	call	_ZNSt7__cxx1112basic_stringIcSt11char_traitsIcESaIcEEpLEPKc
	jmp	.L71
.L70:
	movsbl	-9(%rbp), %edx
	leaq	-48(%rbp), %rax
	movl	$0, %r8d
	movq	%rax, %rcx
	call	_ZNKSt7__cxx1112basic_stringIcSt11char_traitsIcESaIcEE4findEcy
	cmpq	$-1, %rax
	setne	%al
	testb	%al, %al
	je	.L72
	movsbl	-9(%rbp), %edx
	leaq	-48(%rbp), %rax
	movl	$0, %r8d
	movq	%rax, %rcx
	call	_ZNKSt7__cxx1112basic_stringIcSt11char_traitsIcESaIcEE4findEcy
	movq	%rax, %rdx
	leaq	-80(%rbp), %rax
	movq	%rax, %rcx
	call	_ZNSt7__cxx1112basic_stringIcSt11char_traitsIcESaIcEEixEy
	movzbl	(%rax), %eax
	movsbl	%al, %eax
	movq	32(%rbp), %rdx
	leaq	40(%rdx), %rcx
	movl	%eax, %edx
	call	_ZNSt7__cxx1112basic_stringIcSt11char_traitsIcESaIcEEpLEc
	jmp	.L71
.L72:
	movsbl	-9(%rbp), %eax
	movq	32(%rbp), %rdx
	leaq	40(%rdx), %rcx
	movl	%eax, %edx
	call	_ZNSt7__cxx1112basic_stringIcSt11char_traitsIcESaIcEEpLEc
.LEHE23:
.L71:
	leaq	-88(%rbp), %rax
	movq	%rax, %rcx
	call	_ZN9__gnu_cxx17__normal_iteratorIPcNSt7__cxx1112basic_stringIcSt11char_traitsIcESaIcEEEEppEv
	jmp	.L73
.L69:
	movq	32(%rbp), %rax
	movq	%rax, %rcx
	call	_ZN4text8QuotientEv
	leaq	-80(%rbp), %rax
	movq	%rax, %rcx
	call	_ZNSt7__cxx1112basic_stringIcSt11char_traitsIcESaIcEED1Ev
	leaq	-48(%rbp), %rax
	movq	%rax, %rcx
	call	_ZNSt7__cxx1112basic_stringIcSt11char_traitsIcESaIcEED1Ev
	jmp	.L81
.L78:
	movq	%rax, %rbx
	leaq	-11(%rbp), %rax
	movq	%rax, %rcx
	call	_ZNSaIcED1Ev
	movq	%rbx, %rax
	movq	%rax, %rcx
.LEHB24:
	call	_Unwind_Resume
.L79:
	movq	%rax, %rbx
	leaq	-10(%rbp), %rax
	movq	%rax, %rcx
	call	_ZNSaIcED1Ev
	jmp	.L76
.L80:
	movq	%rax, %rbx
	leaq	-80(%rbp), %rax
	movq	%rax, %rcx
	call	_ZNSt7__cxx1112basic_stringIcSt11char_traitsIcESaIcEED1Ev
.L76:
	leaq	-48(%rbp), %rax
	movq	%rax, %rcx
	call	_ZNSt7__cxx1112basic_stringIcSt11char_traitsIcESaIcEED1Ev
	movq	%rbx, %rax
	movq	%rax, %rcx
	call	_Unwind_Resume
	nop
.LEHE24:
.L81:
	addq	$136, %rsp
	popq	%rbx
	popq	%rbp
	ret
	.seh_handler	__gxx_personality_seh0, @unwind, @except
	.seh_handlerdata
.LLSDA1713:
	.byte	0xff
	.byte	0xff
	.byte	0x1
	.uleb128 .LLSDACSE1713-.LLSDACSB1713
.LLSDACSB1713:
	.uleb128 .LEHB21-.LFB1713
	.uleb128 .LEHE21-.LEHB21
	.uleb128 .L78-.LFB1713
	.uleb128 0
	.uleb128 .LEHB22-.LFB1713
	.uleb128 .LEHE22-.LEHB22
	.uleb128 .L79-.LFB1713
	.uleb128 0
	.uleb128 .LEHB23-.LFB1713
	.uleb128 .LEHE23-.LEHB23
	.uleb128 .L80-.LFB1713
	.uleb128 0
	.uleb128 .LEHB24-.LFB1713
	.uleb128 .LEHE24-.LEHB24
	.uleb128 0
	.uleb128 0
.LLSDACSE1713:
	.section	.text$_ZN20charecterReplacement7EncryptEv,"x"
	.linkonce discard
	.seh_endproc
	.section .rdata,"dr"
	.align 8
.LC14:
	.ascii "\12Encryption by substitution of characters: \0"
	.section	.text$_ZN20charecterReplacement3OutERSt14basic_ofstreamIcSt11char_traitsIcEE,"x"
	.linkonce discard
	.align 2
	.globl	_ZN20charecterReplacement3OutERSt14basic_ofstreamIcSt11char_traitsIcEE
	.def	_ZN20charecterReplacement3OutERSt14basic_ofstreamIcSt11char_traitsIcEE;	.scl	2;	.type	32;	.endef
	.seh_proc	_ZN20charecterReplacement3OutERSt14basic_ofstreamIcSt11char_traitsIcEE
_ZN20charecterReplacement3OutERSt14basic_ofstreamIcSt11char_traitsIcEE:
.LFB1714:
	pushq	%rbp
	.seh_pushreg	%rbp
	movq	%rsp, %rbp
	.seh_setframe	%rbp, 0
	subq	$32, %rsp
	.seh_stackalloc	32
	.seh_endprologue
	movq	%rcx, 16(%rbp)
	movq	%rdx, 24(%rbp)
	movq	24(%rbp), %rax
	leaq	.LC9(%rip), %rdx
	movq	%rax, %rcx
	call	_ZStlsISt11char_traitsIcEERSt13basic_ostreamIcT_ES5_PKc
	movq	%rax, %rcx
	movq	16(%rbp), %rax
	addq	$8, %rax
	movq	%rax, %rdx
	call	_ZStlsIcSt11char_traitsIcESaIcEERSt13basic_ostreamIT_T0_ES7_RKNSt7__cxx1112basic_stringIS4_S5_T1_EE
	leaq	.LC14(%rip), %rdx
	movq	%rax, %rcx
	call	_ZStlsISt11char_traitsIcEERSt13basic_ostreamIcT_ES5_PKc
	movq	%rax, %rcx
	movq	16(%rbp), %rax
	addq	$40, %rax
	movq	%rax, %rdx
	call	_ZStlsIcSt11char_traitsIcESaIcEERSt13basic_ostreamIT_T0_ES7_RKNSt7__cxx1112basic_stringIS4_S5_T1_EE
	leaq	.LC4(%rip), %rdx
	movq	%rax, %rcx
	call	_ZStlsISt11char_traitsIcEERSt13basic_ostreamIcT_ES5_PKc
	nop
	addq	$32, %rsp
	popq	%rbp
	ret
	.seh_endproc
	.section .rdata,"dr"
.LC15:
	.ascii "/ \0"
	.section	.text$_ZN17charecterToNumber7EncryptEv,"x"
	.linkonce discard
	.align 2
	.globl	_ZN17charecterToNumber7EncryptEv
	.def	_ZN17charecterToNumber7EncryptEv;	.scl	2;	.type	32;	.endef
	.seh_proc	_ZN17charecterToNumber7EncryptEv
_ZN17charecterToNumber7EncryptEv:
.LFB1715:
	pushq	%rbp
	.seh_pushreg	%rbp
	pushq	%rbx
	.seh_pushreg	%rbx
	subq	$136, %rsp
	.seh_stackalloc	136
	leaq	128(%rsp), %rbp
	.seh_setframe	%rbp, 128
	.seh_endprologue
	movq	%rcx, 32(%rbp)
	movq	32(%rbp), %rax
	addq	$8, %rax
	movq	%rax, -8(%rbp)
	movq	-8(%rbp), %rax
	movq	%rax, %rcx
	call	_ZNSt7__cxx1112basic_stringIcSt11char_traitsIcESaIcEE5beginEv
	movq	%rax, -88(%rbp)
	movq	-8(%rbp), %rax
	movq	%rax, %rcx
	call	_ZNSt7__cxx1112basic_stringIcSt11char_traitsIcESaIcEE3endEv
	movq	%rax, -96(%rbp)
.L87:
	leaq	-96(%rbp), %rdx
	leaq	-88(%rbp), %rax
	movq	%rax, %rcx
	call	_ZN9__gnu_cxxneIPcNSt7__cxx1112basic_stringIcSt11char_traitsIcESaIcEEEEEbRKNS_17__normal_iteratorIT_T0_EESD_
	testb	%al, %al
	je	.L84
	leaq	-88(%rbp), %rax
	movq	%rax, %rcx
	call	_ZNK9__gnu_cxx17__normal_iteratorIPcNSt7__cxx1112basic_stringIcSt11char_traitsIcESaIcEEEEdeEv
	movzbl	(%rax), %eax
	movb	%al, -9(%rbp)
	cmpb	$32, -9(%rbp)
	jne	.L85
	movq	32(%rbp), %rax
	addq	$40, %rax
	leaq	.LC15(%rip), %rdx
	movq	%rax, %rcx
.LEHB25:
	call	_ZNSt7__cxx1112basic_stringIcSt11char_traitsIcESaIcEEpLEPKc
	jmp	.L86
.L85:
	movsbl	-9(%rbp), %edx
	leaq	-48(%rbp), %rax
	movq	%rax, %rcx
	call	_ZNSt7__cxx119to_stringEi
.LEHE25:
	leaq	-80(%rbp), %rax
	leaq	-48(%rbp), %rdx
	leaq	.LC2(%rip), %r8
	movq	%rax, %rcx
.LEHB26:
	call	_ZStplIcSt11char_traitsIcESaIcEENSt7__cxx1112basic_stringIT_T0_T1_EEOS8_PKS5_
.LEHE26:
	movq	32(%rbp), %rax
	leaq	40(%rax), %rcx
	leaq	-80(%rbp), %rax
	movq	%rax, %rdx
.LEHB27:
	call	_ZNSt7__cxx1112basic_stringIcSt11char_traitsIcESaIcEEpLERKS4_
.LEHE27:
	leaq	-80(%rbp), %rax
	movq	%rax, %rcx
	call	_ZNSt7__cxx1112basic_stringIcSt11char_traitsIcESaIcEED1Ev
	leaq	-48(%rbp), %rax
	movq	%rax, %rcx
	call	_ZNSt7__cxx1112basic_stringIcSt11char_traitsIcESaIcEED1Ev
.L86:
	leaq	-88(%rbp), %rax
	movq	%rax, %rcx
	call	_ZN9__gnu_cxx17__normal_iteratorIPcNSt7__cxx1112basic_stringIcSt11char_traitsIcESaIcEEEEppEv
	jmp	.L87
.L84:
	movq	32(%rbp), %rax
	movq	%rax, %rcx
	call	_ZN4text8QuotientEv
	jmp	.L92
.L91:
	movq	%rax, %rbx
	leaq	-80(%rbp), %rax
	movq	%rax, %rcx
	call	_ZNSt7__cxx1112basic_stringIcSt11char_traitsIcESaIcEED1Ev
	jmp	.L89
.L90:
	movq	%rax, %rbx
.L89:
	leaq	-48(%rbp), %rax
	movq	%rax, %rcx
	call	_ZNSt7__cxx1112basic_stringIcSt11char_traitsIcESaIcEED1Ev
	movq	%rbx, %rax
	movq	%rax, %rcx
.LEHB28:
	call	_Unwind_Resume
	nop
.LEHE28:
.L92:
	addq	$136, %rsp
	popq	%rbx
	popq	%rbp
	ret
	.seh_handler	__gxx_personality_seh0, @unwind, @except
	.seh_handlerdata
.LLSDA1715:
	.byte	0xff
	.byte	0xff
	.byte	0x1
	.uleb128 .LLSDACSE1715-.LLSDACSB1715
.LLSDACSB1715:
	.uleb128 .LEHB25-.LFB1715
	.uleb128 .LEHE25-.LEHB25
	.uleb128 0
	.uleb128 0
	.uleb128 .LEHB26-.LFB1715
	.uleb128 .LEHE26-.LEHB26
	.uleb128 .L90-.LFB1715
	.uleb128 0
	.uleb128 .LEHB27-.LFB1715
	.uleb128 .LEHE27-.LEHB27
	.uleb128 .L91-.LFB1715
	.uleb128 0
	.uleb128 .LEHB28-.LFB1715
	.uleb128 .LEHE28-.LEHB28
	.uleb128 0
	.uleb128 0
.LLSDACSE1715:
	.section	.text$_ZN17charecterToNumber7EncryptEv,"x"
	.linkonce discard
	.seh_endproc
	.section .rdata,"dr"
	.align 8
.LC16:
	.ascii "\12Encryption by replacing characters with numbers: \0"
	.section	.text$_ZN17charecterToNumber3OutERSt14basic_ofstreamIcSt11char_traitsIcEE,"x"
	.linkonce discard
	.align 2
	.globl	_ZN17charecterToNumber3OutERSt14basic_ofstreamIcSt11char_traitsIcEE
	.def	_ZN17charecterToNumber3OutERSt14basic_ofstreamIcSt11char_traitsIcEE;	.scl	2;	.type	32;	.endef
	.seh_proc	_ZN17charecterToNumber3OutERSt14basic_ofstreamIcSt11char_traitsIcEE
_ZN17charecterToNumber3OutERSt14basic_ofstreamIcSt11char_traitsIcEE:
.LFB1716:
	pushq	%rbp
	.seh_pushreg	%rbp
	movq	%rsp, %rbp
	.seh_setframe	%rbp, 0
	subq	$32, %rsp
	.seh_stackalloc	32
	.seh_endprologue
	movq	%rcx, 16(%rbp)
	movq	%rdx, 24(%rbp)
	movq	24(%rbp), %rax
	leaq	.LC9(%rip), %rdx
	movq	%rax, %rcx
	call	_ZStlsISt11char_traitsIcEERSt13basic_ostreamIcT_ES5_PKc
	movq	%rax, %rcx
	movq	16(%rbp), %rax
	addq	$8, %rax
	movq	%rax, %rdx
	call	_ZStlsIcSt11char_traitsIcESaIcEERSt13basic_ostreamIT_T0_ES7_RKNSt7__cxx1112basic_stringIS4_S5_T1_EE
	leaq	.LC16(%rip), %rdx
	movq	%rax, %rcx
	call	_ZStlsISt11char_traitsIcEERSt13basic_ostreamIcT_ES5_PKc
	movq	%rax, %rcx
	movq	16(%rbp), %rax
	addq	$40, %rax
	movq	%rax, %rdx
	call	_ZStlsIcSt11char_traitsIcESaIcEERSt13basic_ostreamIT_T0_ES7_RKNSt7__cxx1112basic_stringIS4_S5_T1_EE
	leaq	.LC4(%rip), %rdx
	movq	%rax, %rcx
	call	_ZStlsISt11char_traitsIcEERSt13basic_ostreamIcT_ES5_PKc
	nop
	addq	$32, %rsp
	popq	%rbp
	ret
	.seh_endproc
	.section .rdata,"dr"
.LC17:
	.ascii "container was created\12\0"
	.section	.text$_ZN9container4InitEv,"x"
	.linkonce discard
	.align 2
	.globl	_ZN9container4InitEv
	.def	_ZN9container4InitEv;	.scl	2;	.type	32;	.endef
	.seh_proc	_ZN9container4InitEv
_ZN9container4InitEv:
.LFB1717:
	pushq	%rbp
	.seh_pushreg	%rbp
	movq	%rsp, %rbp
	.seh_setframe	%rbp, 0
	subq	$32, %rsp
	.seh_stackalloc	32
	.seh_endprologue
	movq	%rcx, 16(%rbp)
	movq	16(%rbp), %rax
	movl	$0, (%rax)
	leaq	.LC17(%rip), %rdx
	movq	.refptr._ZSt4cout(%rip), %rcx
	call	_ZStlsISt11char_traitsIcEERSt13basic_ostreamIcT_ES5_PKc
	nop
	addq	$32, %rsp
	popq	%rbp
	ret
	.seh_endproc
	.section	.text$_ZN4textD1Ev,"x"
	.linkonce discard
	.align 2
	.globl	_ZN4textD1Ev
	.def	_ZN4textD1Ev;	.scl	2;	.type	32;	.endef
	.seh_proc	_ZN4textD1Ev
_ZN4textD1Ev:
.LFB1721:
	pushq	%rbp
	.seh_pushreg	%rbp
	movq	%rsp, %rbp
	.seh_setframe	%rbp, 0
	subq	$32, %rsp
	.seh_stackalloc	32
	.seh_endprologue
	movq	%rcx, 16(%rbp)
	leaq	16+_ZTV4text(%rip), %rdx
	movq	16(%rbp), %rax
	movq	%rdx, (%rax)
	movq	16(%rbp), %rax
	addq	$40, %rax
	movq	%rax, %rcx
	call	_ZNSt7__cxx1112basic_stringIcSt11char_traitsIcESaIcEED1Ev
	movq	16(%rbp), %rax
	addq	$8, %rax
	movq	%rax, %rcx
	call	_ZNSt7__cxx1112basic_stringIcSt11char_traitsIcESaIcEED1Ev
	nop
	addq	$32, %rsp
	popq	%rbp
	ret
	.seh_endproc
	.section .rdata,"dr"
.LC18:
	.ascii "container was cleared\12\0"
	.section	.text$_ZN9container5ClearEv,"x"
	.linkonce discard
	.align 2
	.globl	_ZN9container5ClearEv
	.def	_ZN9container5ClearEv;	.scl	2;	.type	32;	.endef
	.seh_proc	_ZN9container5ClearEv
_ZN9container5ClearEv:
.LFB1718:
	pushq	%rbp
	.seh_pushreg	%rbp
	pushq	%rbx
	.seh_pushreg	%rbx
	subq	$56, %rsp
	.seh_stackalloc	56
	leaq	128(%rsp), %rbp
	.seh_setframe	%rbp, 128
	.seh_endprologue
	movq	%rcx, -48(%rbp)
	movl	$0, -84(%rbp)
.L99:
	movq	-48(%rbp), %rax
	movl	(%rax), %eax
	cmpl	%eax, -84(%rbp)
	jge	.L97
	movq	-48(%rbp), %rdx
	movl	-84(%rbp), %eax
	cltq
	movq	8(%rdx,%rax,8), %rbx
	testq	%rbx, %rbx
	je	.L98
	movq	%rbx, %rcx
	call	_ZN4textD1Ev
	movl	$80, %edx
	movq	%rbx, %rcx
	call	_ZdlPvy
.L98:
	addl	$1, -84(%rbp)
	jmp	.L99
.L97:
	movq	-48(%rbp), %rax
	movl	$0, (%rax)
	leaq	.LC18(%rip), %rdx
	movq	.refptr._ZSt4cout(%rip), %rcx
	call	_ZStlsISt11char_traitsIcEERSt13basic_ostreamIcT_ES5_PKc
	nop
	addq	$56, %rsp
	popq	%rbx
	popq	%rbp
	ret
	.seh_endproc
	.section	.text$_ZN4textC2Ev,"x"
	.linkonce discard
	.align 2
	.globl	_ZN4textC2Ev
	.def	_ZN4textC2Ev;	.scl	2;	.type	32;	.endef
	.seh_proc	_ZN4textC2Ev
_ZN4textC2Ev:
.LFB1725:
	pushq	%rbp
	.seh_pushreg	%rbp
	movq	%rsp, %rbp
	.seh_setframe	%rbp, 0
	subq	$32, %rsp
	.seh_stackalloc	32
	.seh_endprologue
	movq	%rcx, 16(%rbp)
	leaq	16+_ZTV4text(%rip), %rdx
	movq	16(%rbp), %rax
	movq	%rdx, (%rax)
	movq	16(%rbp), %rax
	addq	$8, %rax
	movq	%rax, %rcx
	call	_ZNSt7__cxx1112basic_stringIcSt11char_traitsIcESaIcEEC1Ev
	movq	16(%rbp), %rax
	addq	$40, %rax
	movq	%rax, %rcx
	call	_ZNSt7__cxx1112basic_stringIcSt11char_traitsIcESaIcEEC1Ev
	movq	16(%rbp), %rax
	pxor	%xmm0, %xmm0
	movsd	%xmm0, 72(%rax)
	nop
	addq	$32, %rsp
	popq	%rbp
	ret
	.seh_endproc
	.section	.text$_ZN17charecterToNumberC1Ev,"x"
	.linkonce discard
	.align 2
	.globl	_ZN17charecterToNumberC1Ev
	.def	_ZN17charecterToNumberC1Ev;	.scl	2;	.type	32;	.endef
	.seh_proc	_ZN17charecterToNumberC1Ev
_ZN17charecterToNumberC1Ev:
.LFB1728:
	pushq	%rbp
	.seh_pushreg	%rbp
	movq	%rsp, %rbp
	.seh_setframe	%rbp, 0
	subq	$32, %rsp
	.seh_stackalloc	32
	.seh_endprologue
	movq	%rcx, 16(%rbp)
	movq	16(%rbp), %rax
	movq	%rax, %rcx
	call	_ZN4textC2Ev
	leaq	16+_ZTV17charecterToNumber(%rip), %rdx
	movq	16(%rbp), %rax
	movq	%rdx, (%rax)
	nop
	addq	$32, %rsp
	popq	%rbp
	ret
	.seh_endproc
	.section	.text$_ZN20charecterReplacementC1Ev,"x"
	.linkonce discard
	.align 2
	.globl	_ZN20charecterReplacementC1Ev
	.def	_ZN20charecterReplacementC1Ev;	.scl	2;	.type	32;	.endef
	.seh_proc	_ZN20charecterReplacementC1Ev
_ZN20charecterReplacementC1Ev:
.LFB1731:
	pushq	%rbp
	.seh_pushreg	%rbp
	movq	%rsp, %rbp
	.seh_setframe	%rbp, 0
	subq	$32, %rsp
	.seh_stackalloc	32
	.seh_endprologue
	movq	%rcx, 16(%rbp)
	movq	16(%rbp), %rax
	movq	%rax, %rcx
	call	_ZN4textC2Ev
	leaq	16+_ZTV20charecterReplacement(%rip), %rdx
	movq	16(%rbp), %rax
	movq	%rdx, (%rax)
	nop
	addq	$32, %rsp
	popq	%rbp
	ret
	.seh_endproc
	.section	.text$_ZN11cyclicShiftC1Ev,"x"
	.linkonce discard
	.align 2
	.globl	_ZN11cyclicShiftC1Ev
	.def	_ZN11cyclicShiftC1Ev;	.scl	2;	.type	32;	.endef
	.seh_proc	_ZN11cyclicShiftC1Ev
_ZN11cyclicShiftC1Ev:
.LFB1734:
	pushq	%rbp
	.seh_pushreg	%rbp
	movq	%rsp, %rbp
	.seh_setframe	%rbp, 0
	subq	$32, %rsp
	.seh_stackalloc	32
	.seh_endprologue
	movq	%rcx, 16(%rbp)
	movq	16(%rbp), %rax
	movq	%rax, %rcx
	call	_ZN4textC2Ev
	leaq	16+_ZTV11cyclicShift(%rip), %rdx
	movq	16(%rbp), %rax
	movq	%rdx, (%rax)
	movq	16(%rbp), %rax
	movl	$0, 80(%rax)
	nop
	addq	$32, %rsp
	popq	%rbp
	ret
	.seh_endproc
	.section .rdata,"dr"
.LC20:
	.ascii "An Error Occured\0"
.LC21:
	.ascii "reading was finished\12\0"
.LC22:
	.ascii "container was filled\12\0"
	.section	.text$_ZN9container2InERSt14basic_ifstreamIcSt11char_traitsIcEE,"x"
	.linkonce discard
	.align 2
	.globl	_ZN9container2InERSt14basic_ifstreamIcSt11char_traitsIcEE
	.def	_ZN9container2InERSt14basic_ifstreamIcSt11char_traitsIcEE;	.scl	2;	.type	32;	.endef
	.seh_proc	_ZN9container2InERSt14basic_ifstreamIcSt11char_traitsIcEE
_ZN9container2InERSt14basic_ifstreamIcSt11char_traitsIcEE:
.LFB1722:
	pushq	%rbp
	.seh_pushreg	%rbp
	pushq	%rbx
	.seh_pushreg	%rbx
	subq	$72, %rsp
	.seh_stackalloc	72
	leaq	128(%rsp), %rbp
	.seh_setframe	%rbp, 128
	.seh_endprologue
	movq	%rcx, -32(%rbp)
	movq	%rdx, -24(%rbp)
	movl	$0, -92(%rbp)
.L111:
	movq	-24(%rbp), %rax
	movq	(%rax), %rax
	subq	$24, %rax
	movq	(%rax), %rax
	movq	%rax, %rdx
	movq	-24(%rbp), %rax
	addq	%rdx, %rax
	movq	%rax, %rcx
	call	_ZNKSt9basic_iosIcSt11char_traitsIcEE3eofEv
	xorl	$1, %eax
	testb	%al, %al
	je	.L105
	movl	$80, %ecx
	call	_Znwy
	movq	%rax, %rbx
	movq	%rbx, %rcx
	call	_ZN17charecterToNumberC1Ev
	movq	%rbx, -72(%rbp)
	movl	$80, %ecx
	call	_Znwy
	movq	%rax, %rbx
	movq	%rbx, %rcx
	call	_ZN20charecterReplacementC1Ev
	movq	%rbx, -80(%rbp)
	movl	$88, %ecx
	call	_Znwy
	movq	%rax, %rbx
	movq	%rbx, %rcx
	call	_ZN11cyclicShiftC1Ev
	movq	%rbx, -88(%rbp)
	movq	-24(%rbp), %rcx
	leaq	-92(%rbp), %rax
	movq	%rax, %rdx
	call	_ZNSirsERi
	movl	-92(%rbp), %eax
	cmpl	$2, %eax
	je	.L106
	cmpl	$3, %eax
	je	.L107
	cmpl	$1, %eax
	jne	.L108
	movq	-80(%rbp), %rcx
	movq	-80(%rbp), %rax
	movq	(%rax), %rax
	addq	$8, %rax
	movq	(%rax), %rax
	movq	-24(%rbp), %rdx
	call	*%rax
	movq	-32(%rbp), %rax
	movl	(%rax), %eax
	leal	1(%rax), %edx
	movq	-32(%rbp), %rcx
	movl	%edx, (%rcx)
	movq	-32(%rbp), %rdx
	cltq
	movq	-80(%rbp), %rcx
	movq	%rcx, 8(%rdx,%rax,8)
	jmp	.L109
.L106:
	movq	-88(%rbp), %rax
	movq	(%rax), %rax
	addq	$8, %rax
	movq	(%rax), %rax
	movq	-24(%rbp), %rdx
	movq	-88(%rbp), %rcx
	call	*%rax
	movq	-32(%rbp), %rax
	movl	(%rax), %eax
	leal	1(%rax), %edx
	movq	-32(%rbp), %rcx
	movl	%edx, (%rcx)
	movq	-32(%rbp), %rdx
	cltq
	movq	-88(%rbp), %rcx
	movq	%rcx, 8(%rdx,%rax,8)
	jmp	.L109
.L107:
	movq	-72(%rbp), %rcx
	movq	-72(%rbp), %rax
	movq	(%rax), %rax
	addq	$8, %rax
	movq	(%rax), %rax
	movq	-24(%rbp), %rdx
	call	*%rax
	movq	-32(%rbp), %rax
	movl	(%rax), %eax
	leal	1(%rax), %edx
	movq	-32(%rbp), %rcx
	movl	%edx, (%rcx)
	movq	-32(%rbp), %rdx
	cltq
	movq	-72(%rbp), %rcx
	movq	%rcx, 8(%rdx,%rax,8)
	jmp	.L109
.L108:
	leaq	.LC20(%rip), %rdx
	movq	.refptr._ZSt4cout(%rip), %rcx
	call	_ZStlsISt11char_traitsIcEERSt13basic_ostreamIcT_ES5_PKc
	jmp	.L104
.L109:
	jmp	.L111
.L105:
	leaq	.LC21(%rip), %rdx
	movq	.refptr._ZSt4cout(%rip), %rcx
	call	_ZStlsISt11char_traitsIcEERSt13basic_ostreamIcT_ES5_PKc
	leaq	.LC22(%rip), %rdx
	movq	.refptr._ZSt4cout(%rip), %rcx
	call	_ZStlsISt11char_traitsIcEERSt13basic_ostreamIcT_ES5_PKc
	nop
.L104:
	addq	$72, %rsp
	popq	%rbx
	popq	%rbp
	ret
	.seh_endproc
	.section .rdata,"dr"
	.align 8
.LC23:
	.ascii "container was filled randomly\12\0"
	.section	.text$_ZN9container5InRndEi,"x"
	.linkonce discard
	.align 2
	.globl	_ZN9container5InRndEi
	.def	_ZN9container5InRndEi;	.scl	2;	.type	32;	.endef
	.seh_proc	_ZN9container5InRndEi
_ZN9container5InRndEi:
.LFB1735:
	pushq	%rbp
	.seh_pushreg	%rbp
	pushq	%rbx
	.seh_pushreg	%rbx
	subq	$72, %rsp
	.seh_stackalloc	72
	leaq	128(%rsp), %rbp
	.seh_setframe	%rbp, 128
	.seh_endprologue
	movq	%rcx, -32(%rbp)
	movl	%edx, -24(%rbp)
.L120:
	movq	-32(%rbp), %rax
	movl	(%rax), %eax
	cmpl	%eax, -24(%rbp)
	jle	.L114
	movl	$80, %ecx
	call	_Znwy
	movq	%rax, %rbx
	movq	%rbx, %rcx
	call	_ZN17charecterToNumberC1Ev
	movq	%rbx, -72(%rbp)
	movl	$80, %ecx
	call	_Znwy
	movq	%rax, %rbx
	movq	%rbx, %rcx
	call	_ZN20charecterReplacementC1Ev
	movq	%rbx, -80(%rbp)
	movl	$88, %ecx
	call	_Znwy
	movq	%rax, %rbx
	movq	%rbx, %rcx
	call	_ZN11cyclicShiftC1Ev
	movq	%rbx, -88(%rbp)
	call	rand
	movl	%eax, %ecx
	movl	$1431655766, %edx
	movl	%ecx, %eax
	imull	%edx
	movl	%ecx, %eax
	sarl	$31, %eax
	subl	%eax, %edx
	movl	%edx, %eax
	addl	%eax, %eax
	addl	%edx, %eax
	subl	%eax, %ecx
	movl	%ecx, %edx
	leal	1(%rdx), %eax
	movl	%eax, -92(%rbp)
	cmpl	$2, -92(%rbp)
	je	.L115
	cmpl	$3, -92(%rbp)
	je	.L116
	cmpl	$1, -92(%rbp)
	jne	.L117
	movq	-80(%rbp), %rdx
	movq	-80(%rbp), %rax
	movq	(%rax), %rax
	addq	$16, %rax
	movq	(%rax), %rax
	movq	%rdx, %rcx
	call	*%rax
	movq	-32(%rbp), %rax
	movl	(%rax), %eax
	leal	1(%rax), %edx
	movq	-32(%rbp), %rcx
	movl	%edx, (%rcx)
	movq	-32(%rbp), %rdx
	cltq
	movq	-80(%rbp), %rcx
	movq	%rcx, 8(%rdx,%rax,8)
	jmp	.L118
.L115:
	movq	-88(%rbp), %rax
	movq	(%rax), %rax
	addq	$16, %rax
	movq	(%rax), %rax
	movq	-88(%rbp), %rdx
	movq	%rdx, %rcx
	call	*%rax
	movq	-32(%rbp), %rax
	movl	(%rax), %eax
	leal	1(%rax), %edx
	movq	-32(%rbp), %rcx
	movl	%edx, (%rcx)
	movq	-32(%rbp), %rdx
	cltq
	movq	-88(%rbp), %rcx
	movq	%rcx, 8(%rdx,%rax,8)
	jmp	.L118
.L116:
	movq	-72(%rbp), %rdx
	movq	-72(%rbp), %rax
	movq	(%rax), %rax
	addq	$16, %rax
	movq	(%rax), %rax
	movq	%rdx, %rcx
	call	*%rax
	movq	-32(%rbp), %rax
	movl	(%rax), %eax
	leal	1(%rax), %edx
	movq	-32(%rbp), %rcx
	movl	%edx, (%rcx)
	movq	-32(%rbp), %rdx
	cltq
	movq	-72(%rbp), %rcx
	movq	%rcx, 8(%rdx,%rax,8)
	jmp	.L118
.L117:
	leaq	.LC20(%rip), %rdx
	movq	.refptr._ZSt4cout(%rip), %rcx
	call	_ZStlsISt11char_traitsIcEERSt13basic_ostreamIcT_ES5_PKc
	jmp	.L113
.L118:
	jmp	.L120
.L114:
	leaq	.LC23(%rip), %rdx
	movq	.refptr._ZSt4cout(%rip), %rcx
	call	_ZStlsISt11char_traitsIcEERSt13basic_ostreamIcT_ES5_PKc
	nop
.L113:
	addq	$72, %rsp
	popq	%rbx
	popq	%rbp
	ret
	.seh_endproc
	.section .rdata,"dr"
.LC24:
	.ascii "Container contains \0"
.LC25:
	.ascii " elements.\0"
.LC26:
	.ascii "container was printed\12\0"
	.section	.text$_ZN9container3OutERSt14basic_ofstreamIcSt11char_traitsIcEE,"x"
	.linkonce discard
	.align 2
	.globl	_ZN9container3OutERSt14basic_ofstreamIcSt11char_traitsIcEE
	.def	_ZN9container3OutERSt14basic_ofstreamIcSt11char_traitsIcEE;	.scl	2;	.type	32;	.endef
	.seh_proc	_ZN9container3OutERSt14basic_ofstreamIcSt11char_traitsIcEE
_ZN9container3OutERSt14basic_ofstreamIcSt11char_traitsIcEE:
.LFB1736:
	pushq	%rbp
	.seh_pushreg	%rbp
	movq	%rsp, %rbp
	.seh_setframe	%rbp, 0
	subq	$48, %rsp
	.seh_stackalloc	48
	.seh_endprologue
	movq	%rcx, 16(%rbp)
	movq	%rdx, 24(%rbp)
	movq	24(%rbp), %rax
	leaq	.LC24(%rip), %rdx
	movq	%rax, %rcx
	call	_ZStlsISt11char_traitsIcEERSt13basic_ostreamIcT_ES5_PKc
	movq	%rax, %rcx
	movq	16(%rbp), %rax
	movl	(%rax), %eax
	movl	%eax, %edx
	call	_ZNSolsEi
	leaq	.LC25(%rip), %rdx
	movq	%rax, %rcx
	call	_ZStlsISt11char_traitsIcEERSt13basic_ostreamIcT_ES5_PKc
	leaq	.LC4(%rip), %rdx
	movq	%rax, %rcx
	call	_ZStlsISt11char_traitsIcEERSt13basic_ostreamIcT_ES5_PKc
	movl	$0, -4(%rbp)
.L123:
	movq	16(%rbp), %rax
	movl	(%rax), %eax
	cmpl	%eax, -4(%rbp)
	jge	.L122
	movq	24(%rbp), %rax
	movl	-4(%rbp), %edx
	movq	%rax, %rcx
	call	_ZNSolsEi
	leaq	.LC11(%rip), %rdx
	movq	%rax, %rcx
	call	_ZStlsISt11char_traitsIcEERSt13basic_ostreamIcT_ES5_PKc
	movq	16(%rbp), %rdx
	movl	-4(%rbp), %eax
	cltq
	movq	8(%rdx,%rax,8), %rcx
	movq	16(%rbp), %rdx
	movl	-4(%rbp), %eax
	cltq
	movq	8(%rdx,%rax,8), %rax
	movq	(%rax), %rax
	addq	$24, %rax
	movq	(%rax), %rax
	movq	24(%rbp), %rdx
	call	*%rax
	addl	$1, -4(%rbp)
	jmp	.L123
.L122:
	leaq	.LC26(%rip), %rdx
	movq	.refptr._ZSt4cout(%rip), %rcx
	call	_ZStlsISt11char_traitsIcEERSt13basic_ostreamIcT_ES5_PKc
	nop
	addq	$48, %rsp
	popq	%rbp
	ret
	.seh_endproc
	.section .rdata,"dr"
	.align 8
.LC27:
	.ascii "Container was sorted by straight merge and contains \0"
.LC28:
	.ascii " elements.\12\0"
.LC29:
	.ascii ": Quotient = \0"
.LC30:
	.ascii "container was mergesorted\12\0"
	.section	.text$_ZN9container9MergeSortERSt14basic_ofstreamIcSt11char_traitsIcEE,"x"
	.linkonce discard
	.align 2
	.globl	_ZN9container9MergeSortERSt14basic_ofstreamIcSt11char_traitsIcEE
	.def	_ZN9container9MergeSortERSt14basic_ofstreamIcSt11char_traitsIcEE;	.scl	2;	.type	32;	.endef
	.seh_proc	_ZN9container9MergeSortERSt14basic_ofstreamIcSt11char_traitsIcEE
_ZN9container9MergeSortERSt14basic_ofstreamIcSt11char_traitsIcEE:
.LFB1738:
	pushq	%rbp
	.seh_pushreg	%rbp
	movl	$240128, %eax
	call	___chkstk_ms
	subq	%rax, %rsp
	.seh_stackalloc	240128
	leaq	128(%rsp), %rbp
	.seh_setframe	%rbp, 128
	.seh_endprologue
	movq	%rcx, 240016(%rbp)
	movq	%rdx, 240024(%rbp)
	movl	$0, 239996(%rbp)
.L126:
	movq	240016(%rbp), %rax
	movl	(%rax), %eax
	cmpl	%eax, 239996(%rbp)
	jge	.L125
	movl	239996(%rbp), %eax
	cltq
	salq	$4, %rax
	leaq	240000(%rbp), %rcx
	addq	%rcx, %rax
	subq	$160096, %rax
	movl	239996(%rbp), %edx
	movl	%edx, (%rax)
	movq	240016(%rbp), %rdx
	movl	239996(%rbp), %eax
	cltq
	movq	8(%rdx,%rax,8), %rax
	movsd	72(%rax), %xmm0
	movl	239996(%rbp), %eax
	cltq
	salq	$4, %rax
	leaq	240000(%rbp), %rcx
	addq	%rcx, %rax
	subq	$160088, %rax
	movsd	%xmm0, (%rax)
	addl	$1, 239996(%rbp)
	jmp	.L126
.L125:
	movq	$1, 239984(%rbp)
.L143:
	movq	240016(%rbp), %rax
	movl	(%rax), %eax
	cltq
	cmpq	%rax, 239984(%rbp)
	jnb	.L127
	movq	$0, 239976(%rbp)
.L142:
	movq	240016(%rbp), %rax
	movl	(%rax), %eax
	cltq
	subq	239984(%rbp), %rax
	cmpq	%rax, 239976(%rbp)
	jnb	.L128
	movq	$0, 239968(%rbp)
	movq	$0, 239960(%rbp)
	movq	239976(%rbp), %rax
	movq	%rax, 239928(%rbp)
	movq	239976(%rbp), %rdx
	movq	239984(%rbp), %rax
	addq	%rdx, %rax
	movq	%rax, 239920(%rbp)
	movq	239984(%rbp), %rax
	leaq	(%rax,%rax), %rdx
	movq	239976(%rbp), %rax
	addq	%rdx, %rax
	movq	%rax, 239912(%rbp)
	movq	240016(%rbp), %rax
	movl	(%rax), %eax
	cltq
	cmpq	%rax, 239912(%rbp)
	cmovbe	239912(%rbp), %rax
	movq	%rax, 239912(%rbp)
	movq	239912(%rbp), %rax
	subq	239928(%rbp), %rax
	movabsq	$576460752303423487, %rdx
	cmpq	%rdx, %rax
	ja	.L129
	salq	$4, %rax
	movq	%rax, %rcx
	call	_Znay
	movq	%rax, 239904(%rbp)
	jmp	.L135
.L129:
	call	__cxa_throw_bad_array_new_length
.L135:
	movq	239928(%rbp), %rdx
	movq	239968(%rbp), %rax
	addq	%rdx, %rax
	cmpq	%rax, 239920(%rbp)
	jbe	.L137
	movq	239920(%rbp), %rdx
	movq	239960(%rbp), %rax
	addq	%rdx, %rax
	cmpq	%rax, 239912(%rbp)
	jbe	.L137
	movq	239928(%rbp), %rdx
	movq	239968(%rbp), %rax
	addq	%rdx, %rax
	salq	$4, %rax
	leaq	240000(%rbp), %rcx
	addq	%rcx, %rax
	subq	$160088, %rax
	movsd	(%rax), %xmm1
	movq	239920(%rbp), %rdx
	movq	239960(%rbp), %rax
	addq	%rdx, %rax
	salq	$4, %rax
	leaq	240000(%rbp), %rcx
	addq	%rcx, %rax
	subq	$160088, %rax
	movsd	(%rax), %xmm0
	comisd	%xmm1, %xmm0
	jbe	.L151
	movq	239928(%rbp), %rdx
	movq	239968(%rbp), %rax
	addq	%rdx, %rax
	movq	239968(%rbp), %rcx
	movq	239960(%rbp), %rdx
	addq	%rcx, %rdx
	movq	%rdx, %rcx
	salq	$4, %rcx
	movq	239904(%rbp), %rdx
	addq	%rdx, %rcx
	salq	$4, %rax
	leaq	240000(%rbp), %rdx
	addq	%rdx, %rax
	subq	$160096, %rax
	movq	8(%rax), %rdx
	movq	(%rax), %rax
	movq	%rax, (%rcx)
	movq	%rdx, 8(%rcx)
	addq	$1, 239968(%rbp)
	jmp	.L135
.L151:
	movq	239920(%rbp), %rdx
	movq	239960(%rbp), %rax
	addq	%rdx, %rax
	movq	239968(%rbp), %rcx
	movq	239960(%rbp), %rdx
	addq	%rcx, %rdx
	movq	%rdx, %rcx
	salq	$4, %rcx
	movq	239904(%rbp), %rdx
	addq	%rdx, %rcx
	salq	$4, %rax
	leaq	240000(%rbp), %rdx
	addq	%rdx, %rax
	subq	$160096, %rax
	movq	8(%rax), %rdx
	movq	(%rax), %rax
	movq	%rax, (%rcx)
	movq	%rdx, 8(%rcx)
	addq	$1, 239960(%rbp)
	jmp	.L135
.L137:
	movq	239928(%rbp), %rdx
	movq	239968(%rbp), %rax
	addq	%rdx, %rax
	cmpq	%rax, 239920(%rbp)
	jbe	.L136
	movq	239928(%rbp), %rdx
	movq	239968(%rbp), %rax
	addq	%rdx, %rax
	movq	239968(%rbp), %rcx
	movq	239960(%rbp), %rdx
	addq	%rcx, %rdx
	movq	%rdx, %rcx
	salq	$4, %rcx
	movq	239904(%rbp), %rdx
	addq	%rdx, %rcx
	salq	$4, %rax
	leaq	240000(%rbp), %rdx
	addq	%rdx, %rax
	subq	$160096, %rax
	movq	8(%rax), %rdx
	movq	(%rax), %rax
	movq	%rax, (%rcx)
	movq	%rdx, 8(%rcx)
	addq	$1, 239968(%rbp)
	jmp	.L137
.L136:
	movq	239920(%rbp), %rdx
	movq	239960(%rbp), %rax
	addq	%rdx, %rax
	cmpq	%rax, 239912(%rbp)
	jbe	.L138
	movq	239920(%rbp), %rdx
	movq	239960(%rbp), %rax
	addq	%rdx, %rax
	movq	239968(%rbp), %rcx
	movq	239960(%rbp), %rdx
	addq	%rcx, %rdx
	movq	%rdx, %rcx
	salq	$4, %rcx
	movq	239904(%rbp), %rdx
	addq	%rdx, %rcx
	salq	$4, %rax
	leaq	240000(%rbp), %rdx
	addq	%rdx, %rax
	subq	$160096, %rax
	movq	8(%rax), %rdx
	movq	(%rax), %rax
	movq	%rax, (%rcx)
	movq	%rdx, 8(%rcx)
	addq	$1, 239960(%rbp)
	jmp	.L136
.L138:
	movq	$0, 239952(%rbp)
.L140:
	movq	239968(%rbp), %rdx
	movq	239960(%rbp), %rax
	addq	%rdx, %rax
	cmpq	%rax, 239952(%rbp)
	jnb	.L139
	movq	239952(%rbp), %rax
	salq	$4, %rax
	movq	%rax, %rdx
	movq	239904(%rbp), %rax
	addq	%rdx, %rax
	movq	239928(%rbp), %rcx
	movq	239952(%rbp), %rdx
	addq	%rcx, %rdx
	salq	$4, %rdx
	leaq	240000(%rbp), %rcx
	addq	%rcx, %rdx
	leaq	-160096(%rdx), %rcx
	movq	8(%rax), %rdx
	movq	(%rax), %rax
	movq	%rax, (%rcx)
	movq	%rdx, 8(%rcx)
	addq	$1, 239952(%rbp)
	jmp	.L140
.L139:
	cmpq	$0, 239904(%rbp)
	je	.L141
	movq	239904(%rbp), %rax
	movq	%rax, %rcx
	call	_ZdaPv
.L141:
	movq	239984(%rbp), %rax
	addq	%rax, %rax
	addq	%rax, 239976(%rbp)
	jmp	.L142
.L128:
	salq	239984(%rbp)
	jmp	.L143
.L127:
	movl	$0, 239948(%rbp)
.L145:
	movq	240016(%rbp), %rax
	movl	(%rax), %eax
	cmpl	%eax, 239948(%rbp)
	jge	.L144
	movq	240016(%rbp), %rdx
	movl	239948(%rbp), %eax
	cltq
	movq	8(%rdx,%rax,8), %rdx
	movl	239948(%rbp), %eax
	cltq
	movq	%rdx, -96(%rbp,%rax,8)
	addl	$1, 239948(%rbp)
	jmp	.L145
.L144:
	movl	$0, 239944(%rbp)
.L147:
	movq	240016(%rbp), %rax
	movl	(%rax), %eax
	cmpl	%eax, 239944(%rbp)
	jge	.L146
	movl	239944(%rbp), %eax
	cltq
	salq	$4, %rax
	leaq	240000(%rbp), %rcx
	addq	%rcx, %rax
	subq	$160096, %rax
	movl	(%rax), %eax
	cltq
	movq	-96(%rbp,%rax,8), %rcx
	movq	240016(%rbp), %rdx
	movl	239944(%rbp), %eax
	cltq
	movq	%rcx, 8(%rdx,%rax,8)
	addl	$1, 239944(%rbp)
	jmp	.L147
.L146:
	movq	240024(%rbp), %rax
	leaq	.LC27(%rip), %rdx
	movq	%rax, %rcx
	call	_ZStlsISt11char_traitsIcEERSt13basic_ostreamIcT_ES5_PKc
	movq	%rax, %rcx
	movq	240016(%rbp), %rax
	movl	(%rax), %eax
	movl	%eax, %edx
	call	_ZNSolsEi
	leaq	.LC28(%rip), %rdx
	movq	%rax, %rcx
	call	_ZStlsISt11char_traitsIcEERSt13basic_ostreamIcT_ES5_PKc
	movl	$0, 239940(%rbp)
.L149:
	movq	240016(%rbp), %rax
	movl	(%rax), %eax
	cmpl	%eax, 239940(%rbp)
	jge	.L148
	movq	240024(%rbp), %rax
	movl	239940(%rbp), %edx
	movq	%rax, %rcx
	call	_ZNSolsEi
	leaq	.LC29(%rip), %rdx
	movq	%rax, %rcx
	call	_ZStlsISt11char_traitsIcEERSt13basic_ostreamIcT_ES5_PKc
	movq	%rax, %rcx
	movq	240016(%rbp), %rdx
	movl	239940(%rbp), %eax
	cltq
	movq	8(%rdx,%rax,8), %rax
	movsd	72(%rax), %xmm0
	movapd	%xmm0, %xmm1
	call	_ZNSolsEd
	leaq	.LC11(%rip), %rdx
	movq	%rax, %rcx
	call	_ZStlsISt11char_traitsIcEERSt13basic_ostreamIcT_ES5_PKc
	movq	240016(%rbp), %rdx
	movl	239940(%rbp), %eax
	cltq
	movq	8(%rdx,%rax,8), %rcx
	movq	240016(%rbp), %rdx
	movl	239940(%rbp), %eax
	cltq
	movq	8(%rdx,%rax,8), %rax
	movq	(%rax), %rax
	addq	$24, %rax
	movq	(%rax), %rax
	movq	240024(%rbp), %rdx
	call	*%rax
	addl	$1, 239940(%rbp)
	jmp	.L149
.L148:
	leaq	.LC30(%rip), %rdx
	movq	.refptr._ZSt4cout(%rip), %rcx
	call	_ZStlsISt11char_traitsIcEERSt13basic_ostreamIcT_ES5_PKc
	nop
	addq	$240128, %rsp
	popq	%rbp
	ret
	.seh_endproc
	.section .rdata,"dr"
	.align 8
.LC31:
	.ascii "incorrect command line!\12  Waited:\12     command -f infile outfile01 outfile02\12  Or:\12     command -r number outfile01 outfile02\12\0"
	.text
	.globl	_Z11errMessage1v
	.def	_Z11errMessage1v;	.scl	2;	.type	32;	.endef
	.seh_proc	_Z11errMessage1v
_Z11errMessage1v:
.LFB1748:
	pushq	%rbp
	.seh_pushreg	%rbp
	movq	%rsp, %rbp
	.seh_setframe	%rbp, 0
	subq	$32, %rsp
	.seh_stackalloc	32
	.seh_endprologue
	leaq	.LC31(%rip), %rdx
	movq	.refptr._ZSt4cout(%rip), %rcx
	call	_ZStlsISt11char_traitsIcEERSt13basic_ostreamIcT_ES5_PKc
	nop
	addq	$32, %rsp
	popq	%rbp
	ret
	.seh_endproc
	.section .rdata,"dr"
	.align 8
.LC32:
	.ascii "incorrect qualifier value!\12  Waited:\12     command -f infile outfile01 outfile02\12  Or:\12     command -r number outfile01 outfile02\12\0"
	.text
	.globl	_Z11errMessage2v
	.def	_Z11errMessage2v;	.scl	2;	.type	32;	.endef
	.seh_proc	_Z11errMessage2v
_Z11errMessage2v:
.LFB1749:
	pushq	%rbp
	.seh_pushreg	%rbp
	movq	%rsp, %rbp
	.seh_setframe	%rbp, 0
	subq	$32, %rsp
	.seh_stackalloc	32
	.seh_endprologue
	leaq	.LC32(%rip), %rdx
	movq	.refptr._ZSt4cout(%rip), %rcx
	call	_ZStlsISt11char_traitsIcEERSt13basic_ostreamIcT_ES5_PKc
	nop
	addq	$32, %rsp
	popq	%rbp
	ret
	.seh_endproc
	.def	__main;	.scl	2;	.type	32;	.endef
	.section .rdata,"dr"
.LC33:
	.ascii "Start\12\0"
.LC34:
	.ascii "-f\0"
.LC35:
	.ascii "Incorrect path or file\0"
.LC36:
	.ascii "-r\0"
.LC37:
	.ascii "incorrect number of words = \0"
.LC38:
	.ascii ". Set 0 < number <= 10000\12\0"
.LC39:
	.ascii "Filled container:\12\0"
.LC40:
	.ascii "Stop\12\0"
	.text
	.globl	main
	.def	main;	.scl	2;	.type	32;	.endef
	.seh_proc	main
main:
.LFB1750:
	pushq	%rbp
	.seh_pushreg	%rbp
	pushq	%rbx
	.seh_pushreg	%rbx
	movl	$81512, %eax
	call	___chkstk_ms
	subq	%rax, %rsp
	.seh_stackalloc	81512
	leaq	128(%rsp), %rbp
	.seh_setframe	%rbp, 128
	.seh_endprologue
	movl	%ecx, 81408(%rbp)
	movq	%rdx, 81416(%rbp)
	call	__main
	cmpl	$5, 81408(%rbp)
	je	.L155
.LEHB29:
	call	_Z11errMessage1v
	movl	$1, %ebx
	jmp	.L164
.L155:
	leaq	.LC33(%rip), %rdx
	movq	.refptr._ZSt4cout(%rip), %rcx
	call	_ZStlsISt11char_traitsIcEERSt13basic_ostreamIcT_ES5_PKc
	leaq	1312(%rbp), %rax
	movl	$80008, %edx
	movq	%rdx, %r8
	movl	$0, %edx
	movq	%rax, %rcx
	call	memset
	leaq	1312(%rbp), %rax
	movq	%rax, %rcx
	call	_ZN9container4InitEv
	movq	81416(%rbp), %rax
	addq	$8, %rax
	movq	(%rax), %rax
	leaq	.LC34(%rip), %rdx
	movq	%rax, %rcx
	call	strcmp
	testl	%eax, %eax
	jne	.L157
	movq	81416(%rbp), %rax
	addq	$16, %rax
	movq	(%rax), %rdx
	leaq	-96(%rbp), %rax
	movl	$8, %r8d
	movq	%rax, %rcx
	call	_ZNSt14basic_ifstreamIcSt11char_traitsIcEEC1EPKcSt13_Ios_Openmode
.LEHE29:
	leaq	-96(%rbp), %rax
	addq	$208, %rax
	movq	%rax, %rcx
.LEHB30:
	call	_ZNKSt9basic_iosIcSt11char_traitsIcEEcvbEv
	testb	%al, %al
	je	.L158
	leaq	-96(%rbp), %rdx
	leaq	1312(%rbp), %rax
	movq	%rax, %rcx
	call	_ZN9container2InERSt14basic_ifstreamIcSt11char_traitsIcEE
	jmp	.L159
.L158:
	leaq	.LC35(%rip), %rdx
	movq	.refptr._ZSt4cout(%rip), %rcx
	call	_ZStlsISt11char_traitsIcEERSt13basic_ostreamIcT_ES5_PKc
.LEHE30:
.L159:
	leaq	-96(%rbp), %rax
	movq	%rax, %rcx
	call	_ZNSt14basic_ifstreamIcSt11char_traitsIcEED1Ev
	jmp	.L160
.L157:
	movq	81416(%rbp), %rax
	addq	$8, %rax
	movq	(%rax), %rax
	leaq	.LC36(%rip), %rdx
	movq	%rax, %rcx
	call	strcmp
	testl	%eax, %eax
	jne	.L161
	leaq	81371(%rbp), %rax
	movq	%rax, %rcx
	call	_ZNSaIcEC1Ev
	movq	81416(%rbp), %rax
	addq	$16, %rax
	movq	(%rax), %rdx
	leaq	81371(%rbp), %rcx
	leaq	81328(%rbp), %rax
	movq	%rcx, %r8
	movq	%rax, %rcx
.LEHB31:
	call	_ZNSt7__cxx1112basic_stringIcSt11char_traitsIcESaIcEEC1EPKcRKS3_
.LEHE31:
	leaq	81328(%rbp), %rax
	movl	$10, %r8d
	movl	$0, %edx
	movq	%rax, %rcx
.LEHB32:
	call	_ZNSt7__cxx114stoiERKNS_12basic_stringIcSt11char_traitsIcESaIcEEEPyi
.LEHE32:
	movl	%eax, 81372(%rbp)
	leaq	81328(%rbp), %rax
	movq	%rax, %rcx
	call	_ZNSt7__cxx1112basic_stringIcSt11char_traitsIcESaIcEED1Ev
	leaq	81371(%rbp), %rax
	movq	%rax, %rcx
	call	_ZNSaIcED1Ev
	cmpl	$0, 81372(%rbp)
	jle	.L162
	cmpl	$10000, 81372(%rbp)
	jle	.L163
.L162:
	leaq	.LC37(%rip), %rdx
	movq	.refptr._ZSt4cout(%rip), %rcx
.LEHB33:
	call	_ZStlsISt11char_traitsIcEERSt13basic_ostreamIcT_ES5_PKc
	movq	%rax, %rcx
	movl	81372(%rbp), %eax
	movl	%eax, %edx
	call	_ZNSolsEi
	leaq	.LC38(%rip), %rdx
	movq	%rax, %rcx
	call	_ZStlsISt11char_traitsIcEERSt13basic_ostreamIcT_ES5_PKc
	movl	$3, %ebx
	jmp	.L164
.L163:
	movl	81372(%rbp), %edx
	leaq	1312(%rbp), %rax
	movq	%rax, %rcx
	call	_ZN9container5InRndEi
	jmp	.L160
.L161:
	call	_Z11errMessage2v
	movl	$2, %ebx
	jmp	.L164
.L160:
	movq	81416(%rbp), %rax
	addq	$24, %rax
	movq	(%rax), %rdx
	leaq	848(%rbp), %rax
	movl	$16, %r8d
	movq	%rax, %rcx
	call	_ZNSt14basic_ofstreamIcSt11char_traitsIcEEC1EPKcSt13_Ios_Openmode
.LEHE33:
	leaq	848(%rbp), %rax
	leaq	.LC39(%rip), %rdx
	movq	%rax, %rcx
.LEHB34:
	call	_ZStlsISt11char_traitsIcEERSt13basic_ostreamIcT_ES5_PKc
	leaq	848(%rbp), %rdx
	leaq	1312(%rbp), %rax
	movq	%rax, %rcx
	call	_ZN9container3OutERSt14basic_ofstreamIcSt11char_traitsIcEE
	movq	81416(%rbp), %rax
	addq	$32, %rax
	movq	(%rax), %rdx
	leaq	384(%rbp), %rax
	movl	$16, %r8d
	movq	%rax, %rcx
	call	_ZNSt14basic_ofstreamIcSt11char_traitsIcEEC1EPKcSt13_Ios_Openmode
.LEHE34:
	leaq	384(%rbp), %rdx
	leaq	1312(%rbp), %rax
	movq	%rax, %rcx
.LEHB35:
	call	_ZN9container9MergeSortERSt14basic_ofstreamIcSt11char_traitsIcEE
	leaq	1312(%rbp), %rax
	movq	%rax, %rcx
	call	_ZN9container5ClearEv
	leaq	.LC40(%rip), %rdx
	movq	.refptr._ZSt4cout(%rip), %rcx
	call	_ZStlsISt11char_traitsIcEERSt13basic_ostreamIcT_ES5_PKc
.LEHE35:
	movl	$0, %ebx
	leaq	384(%rbp), %rax
	movq	%rax, %rcx
	call	_ZNSt14basic_ofstreamIcSt11char_traitsIcEED1Ev
	leaq	848(%rbp), %rax
	movq	%rax, %rcx
	call	_ZNSt14basic_ofstreamIcSt11char_traitsIcEED1Ev
.L164:
	movl	%ebx, %eax
	jmp	.L175
.L170:
	movq	%rax, %rbx
	leaq	-96(%rbp), %rax
	movq	%rax, %rcx
	call	_ZNSt14basic_ifstreamIcSt11char_traitsIcEED1Ev
	movq	%rbx, %rax
	movq	%rax, %rcx
.LEHB36:
	call	_Unwind_Resume
.L172:
	movq	%rax, %rbx
	leaq	81328(%rbp), %rax
	movq	%rax, %rcx
	call	_ZNSt7__cxx1112basic_stringIcSt11char_traitsIcESaIcEED1Ev
	jmp	.L167
.L171:
	movq	%rax, %rbx
.L167:
	leaq	81371(%rbp), %rax
	movq	%rax, %rcx
	call	_ZNSaIcED1Ev
	movq	%rbx, %rax
	movq	%rax, %rcx
	call	_Unwind_Resume
.L174:
	movq	%rax, %rbx
	leaq	384(%rbp), %rax
	movq	%rax, %rcx
	call	_ZNSt14basic_ofstreamIcSt11char_traitsIcEED1Ev
	jmp	.L169
.L173:
	movq	%rax, %rbx
.L169:
	leaq	848(%rbp), %rax
	movq	%rax, %rcx
	call	_ZNSt14basic_ofstreamIcSt11char_traitsIcEED1Ev
	movq	%rbx, %rax
	movq	%rax, %rcx
	call	_Unwind_Resume
.LEHE36:
.L175:
	addq	$81512, %rsp
	popq	%rbx
	popq	%rbp
	ret
	.seh_handler	__gxx_personality_seh0, @unwind, @except
	.seh_handlerdata
.LLSDA1750:
	.byte	0xff
	.byte	0xff
	.byte	0x1
	.uleb128 .LLSDACSE1750-.LLSDACSB1750
.LLSDACSB1750:
	.uleb128 .LEHB29-.LFB1750
	.uleb128 .LEHE29-.LEHB29
	.uleb128 0
	.uleb128 0
	.uleb128 .LEHB30-.LFB1750
	.uleb128 .LEHE30-.LEHB30
	.uleb128 .L170-.LFB1750
	.uleb128 0
	.uleb128 .LEHB31-.LFB1750
	.uleb128 .LEHE31-.LEHB31
	.uleb128 .L171-.LFB1750
	.uleb128 0
	.uleb128 .LEHB32-.LFB1750
	.uleb128 .LEHE32-.LEHB32
	.uleb128 .L172-.LFB1750
	.uleb128 0
	.uleb128 .LEHB33-.LFB1750
	.uleb128 .LEHE33-.LEHB33
	.uleb128 0
	.uleb128 0
	.uleb128 .LEHB34-.LFB1750
	.uleb128 .LEHE34-.LEHB34
	.uleb128 .L173-.LFB1750
	.uleb128 0
	.uleb128 .LEHB35-.LFB1750
	.uleb128 .LEHE35-.LEHB35
	.uleb128 .L174-.LFB1750
	.uleb128 0
	.uleb128 .LEHB36-.LFB1750
	.uleb128 .LEHE36-.LEHB36
	.uleb128 0
	.uleb128 0
.LLSDACSE1750:
	.text
	.seh_endproc
	.section	.text$_ZZN9__gnu_cxx6__stoaIlicJiEEET0_PFT_PKT1_PPS3_DpT2_EPKcS5_PyS9_EN11_Save_errnoC1Ev,"x"
	.linkonce discard
	.align 2
	.globl	_ZZN9__gnu_cxx6__stoaIlicJiEEET0_PFT_PKT1_PPS3_DpT2_EPKcS5_PyS9_EN11_Save_errnoC1Ev
	.def	_ZZN9__gnu_cxx6__stoaIlicJiEEET0_PFT_PKT1_PPS3_DpT2_EPKcS5_PyS9_EN11_Save_errnoC1Ev;	.scl	2;	.type	32;	.endef
	.seh_proc	_ZZN9__gnu_cxx6__stoaIlicJiEEET0_PFT_PKT1_PPS3_DpT2_EPKcS5_PyS9_EN11_Save_errnoC1Ev
_ZZN9__gnu_cxx6__stoaIlicJiEEET0_PFT_PKT1_PPS3_DpT2_EPKcS5_PyS9_EN11_Save_errnoC1Ev:
.LFB1755:
	pushq	%rbp
	.seh_pushreg	%rbp
	movq	%rsp, %rbp
	.seh_setframe	%rbp, 0
	subq	$32, %rsp
	.seh_stackalloc	32
	.seh_endprologue
	movq	%rcx, 16(%rbp)
	movq	__imp__errno(%rip), %rax
	call	*%rax
	movl	(%rax), %edx
	movq	16(%rbp), %rax
	movl	%edx, (%rax)
	movq	__imp__errno(%rip), %rax
	call	*%rax
	movl	$0, (%rax)
	nop
	addq	$32, %rsp
	popq	%rbp
	ret
	.seh_endproc
	.section	.text$_ZZN9__gnu_cxx6__stoaIlicJiEEET0_PFT_PKT1_PPS3_DpT2_EPKcS5_PyS9_EN11_Save_errnoD1Ev,"x"
	.linkonce discard
	.align 2
	.globl	_ZZN9__gnu_cxx6__stoaIlicJiEEET0_PFT_PKT1_PPS3_DpT2_EPKcS5_PyS9_EN11_Save_errnoD1Ev
	.def	_ZZN9__gnu_cxx6__stoaIlicJiEEET0_PFT_PKT1_PPS3_DpT2_EPKcS5_PyS9_EN11_Save_errnoD1Ev;	.scl	2;	.type	32;	.endef
	.seh_proc	_ZZN9__gnu_cxx6__stoaIlicJiEEET0_PFT_PKT1_PPS3_DpT2_EPKcS5_PyS9_EN11_Save_errnoD1Ev
_ZZN9__gnu_cxx6__stoaIlicJiEEET0_PFT_PKT1_PPS3_DpT2_EPKcS5_PyS9_EN11_Save_errnoD1Ev:
.LFB1758:
	pushq	%rbp
	.seh_pushreg	%rbp
	movq	%rsp, %rbp
	.seh_setframe	%rbp, 0
	subq	$32, %rsp
	.seh_stackalloc	32
	.seh_endprologue
	movq	%rcx, 16(%rbp)
	movq	__imp__errno(%rip), %rax
	call	*%rax
	movl	(%rax), %eax
	testl	%eax, %eax
	sete	%al
	testb	%al, %al
	je	.L179
	movq	__imp__errno(%rip), %rax
	call	*%rax
	movq	%rax, %rdx
	movq	16(%rbp), %rax
	movl	(%rax), %eax
	movl	%eax, (%rdx)
.L179:
	nop
	addq	$32, %rsp
	popq	%rbp
	ret
	.seh_handler	__gxx_personality_seh0, @unwind, @except
	.seh_handlerdata
.LLSDA1758:
	.byte	0xff
	.byte	0xff
	.byte	0x1
	.uleb128 .LLSDACSE1758-.LLSDACSB1758
.LLSDACSB1758:
.LLSDACSE1758:
	.section	.text$_ZZN9__gnu_cxx6__stoaIlicJiEEET0_PFT_PKT1_PPS3_DpT2_EPKcS5_PyS9_EN11_Save_errnoD1Ev,"x"
	.linkonce discard
	.seh_endproc
	.section	.text$_ZZN9__gnu_cxx6__stoaIlicJiEEET0_PFT_PKT1_PPS3_DpT2_EPKcS5_PyS9_EN10_Range_chk6_S_chkElSt17integral_constantIbLb1EE,"x"
	.linkonce discard
	.globl	_ZZN9__gnu_cxx6__stoaIlicJiEEET0_PFT_PKT1_PPS3_DpT2_EPKcS5_PyS9_EN10_Range_chk6_S_chkElSt17integral_constantIbLb1EE
	.def	_ZZN9__gnu_cxx6__stoaIlicJiEEET0_PFT_PKT1_PPS3_DpT2_EPKcS5_PyS9_EN10_Range_chk6_S_chkElSt17integral_constantIbLb1EE;	.scl	2;	.type	32;	.endef
	.seh_proc	_ZZN9__gnu_cxx6__stoaIlicJiEEET0_PFT_PKT1_PPS3_DpT2_EPKcS5_PyS9_EN10_Range_chk6_S_chkElSt17integral_constantIbLb1EE
_ZZN9__gnu_cxx6__stoaIlicJiEEET0_PFT_PKT1_PPS3_DpT2_EPKcS5_PyS9_EN10_Range_chk6_S_chkElSt17integral_constantIbLb1EE:
.LFB1760:
	pushq	%rbp
	.seh_pushreg	%rbp
	movq	%rsp, %rbp
	.seh_setframe	%rbp, 0
	.seh_endprologue
	movl	%ecx, 16(%rbp)
	movb	%dl, 24(%rbp)
	movl	$0, %eax
	popq	%rbp
	ret
	.seh_endproc
	.section	.text$_ZN9__gnu_cxx6__stoaIlicJiEEET0_PFT_PKT1_PPS3_DpT2_EPKcS5_PyS9_,"x"
	.linkonce discard
	.globl	_ZN9__gnu_cxx6__stoaIlicJiEEET0_PFT_PKT1_PPS3_DpT2_EPKcS5_PyS9_
	.def	_ZN9__gnu_cxx6__stoaIlicJiEEET0_PFT_PKT1_PPS3_DpT2_EPKcS5_PyS9_;	.scl	2;	.type	32;	.endef
	.seh_proc	_ZN9__gnu_cxx6__stoaIlicJiEEET0_PFT_PKT1_PPS3_DpT2_EPKcS5_PyS9_
_ZN9__gnu_cxx6__stoaIlicJiEEET0_PFT_PKT1_PPS3_DpT2_EPKcS5_PyS9_:
.LFB1752:
	pushq	%rbp
	.seh_pushreg	%rbp
	pushq	%rbx
	.seh_pushreg	%rbx
	subq	$72, %rsp
	.seh_stackalloc	72
	leaq	128(%rsp), %rbp
	.seh_setframe	%rbp, 128
	.seh_endprologue
	movq	%rcx, -32(%rbp)
	movq	%rdx, -24(%rbp)
	movq	%r8, -16(%rbp)
	movq	%r9, -8(%rbp)
	leaq	-92(%rbp), %rax
	movq	%rax, %rcx
.LEHB37:
	call	_ZZN9__gnu_cxx6__stoaIlicJiEEET0_PFT_PKT1_PPS3_DpT2_EPKcS5_PyS9_EN11_Save_errnoC1Ev
.LEHE37:
	movl	0(%rbp), %edx
	leaq	-88(%rbp), %rax
	movq	-16(%rbp), %rcx
	movq	-32(%rbp), %r9
	movl	%edx, %r8d
	movq	%rax, %rdx
.LEHB38:
	call	*%r9
	movl	%eax, -68(%rbp)
	movq	-88(%rbp), %rax
	cmpq	%rax, -16(%rbp)
	jne	.L183
	movq	-24(%rbp), %rax
	movq	%rax, %rcx
	call	_ZSt24__throw_invalid_argumentPKc
.L183:
	movq	__imp__errno(%rip), %rax
	call	*%rax
	movl	(%rax), %eax
	cmpl	$34, %eax
	je	.L184
	movl	-68(%rbp), %eax
	movl	%ebx, %edx
	movl	%eax, %ecx
	call	_ZZN9__gnu_cxx6__stoaIlicJiEEET0_PFT_PKT1_PPS3_DpT2_EPKcS5_PyS9_EN10_Range_chk6_S_chkElSt17integral_constantIbLb1EE
	testb	%al, %al
	je	.L185
.L184:
	movl	$1, %eax
	jmp	.L186
.L185:
	movl	$0, %eax
.L186:
	testb	%al, %al
	je	.L187
	movq	-24(%rbp), %rax
	movq	%rax, %rcx
	call	_ZSt20__throw_out_of_rangePKc
.LEHE38:
.L187:
	movl	-68(%rbp), %eax
	movl	%eax, -72(%rbp)
	cmpq	$0, -8(%rbp)
	je	.L188
	movq	-88(%rbp), %rax
	subq	-16(%rbp), %rax
	movq	%rax, %rdx
	movq	-8(%rbp), %rax
	movq	%rdx, (%rax)
.L188:
	movl	-72(%rbp), %ebx
	leaq	-92(%rbp), %rax
	movq	%rax, %rcx
	call	_ZZN9__gnu_cxx6__stoaIlicJiEEET0_PFT_PKT1_PPS3_DpT2_EPKcS5_PyS9_EN11_Save_errnoD1Ev
	movl	%ebx, %eax
	jmp	.L192
.L191:
	movq	%rax, %rbx
	leaq	-92(%rbp), %rax
	movq	%rax, %rcx
	call	_ZZN9__gnu_cxx6__stoaIlicJiEEET0_PFT_PKT1_PPS3_DpT2_EPKcS5_PyS9_EN11_Save_errnoD1Ev
	movq	%rbx, %rax
	movq	%rax, %rcx
.LEHB39:
	call	_Unwind_Resume
.LEHE39:
.L192:
	addq	$72, %rsp
	popq	%rbx
	popq	%rbp
	ret
	.seh_handler	__gxx_personality_seh0, @unwind, @except
	.seh_handlerdata
.LLSDA1752:
	.byte	0xff
	.byte	0xff
	.byte	0x1
	.uleb128 .LLSDACSE1752-.LLSDACSB1752
.LLSDACSB1752:
	.uleb128 .LEHB37-.LFB1752
	.uleb128 .LEHE37-.LEHB37
	.uleb128 0
	.uleb128 0
	.uleb128 .LEHB38-.LFB1752
	.uleb128 .LEHE38-.LEHB38
	.uleb128 .L191-.LFB1752
	.uleb128 0
	.uleb128 .LEHB39-.LFB1752
	.uleb128 .LEHE39-.LEHB39
	.uleb128 0
	.uleb128 0
.LLSDACSE1752:
	.section	.text$_ZN9__gnu_cxx6__stoaIlicJiEEET0_PFT_PKT1_PPS3_DpT2_EPKcS5_PyS9_,"x"
	.linkonce discard
	.seh_endproc
	.section	.text$_ZN9__gnu_cxx12__to_xstringINSt7__cxx1112basic_stringIcSt11char_traitsIcESaIcEEEcEET_PFiPT0_yPKS8_PcEySB_z,"x"
	.linkonce discard
	.globl	_ZN9__gnu_cxx12__to_xstringINSt7__cxx1112basic_stringIcSt11char_traitsIcESaIcEEEcEET_PFiPT0_yPKS8_PcEySB_z
	.def	_ZN9__gnu_cxx12__to_xstringINSt7__cxx1112basic_stringIcSt11char_traitsIcESaIcEEEcEET_PFiPT0_yPKS8_PcEySB_z;	.scl	2;	.type	32;	.endef
	.seh_proc	_ZN9__gnu_cxx12__to_xstringINSt7__cxx1112basic_stringIcSt11char_traitsIcESaIcEEEcEET_PFiPT0_yPKS8_PcEySB_z
_ZN9__gnu_cxx12__to_xstringINSt7__cxx1112basic_stringIcSt11char_traitsIcESaIcEEEcEET_PFiPT0_yPKS8_PcEySB_z:
.LFB1824:
	pushq	%rbp
	.seh_pushreg	%rbp
	pushq	%rbx
	.seh_pushreg	%rbx
	subq	$72, %rsp
	.seh_stackalloc	72
	leaq	128(%rsp), %rbp
	.seh_setframe	%rbp, 128
	.seh_endprologue
	movq	%rcx, -32(%rbp)
	movq	%rdx, -24(%rbp)
	movq	%r8, -16(%rbp)
	movq	%r9, -8(%rbp)
	movq	-16(%rbp), %rax
	addq	$15, %rax
	shrq	$4, %rax
	salq	$4, %rax
	call	___chkstk_ms
	subq	%rax, %rsp
	leaq	32(%rsp), %rax
	addq	$15, %rax
	shrq	$4, %rax
	salq	$4, %rax
	movq	%rax, -72(%rbp)
	movq	%rbp, %rax
	movq	%rax, -88(%rbp)
	movq	-88(%rbp), %r9
	movq	-8(%rbp), %r8
	movq	-16(%rbp), %rdx
	movq	-72(%rbp), %rcx
	movq	-24(%rbp), %rax
.LEHB40:
	call	*%rax
.LEHE40:
	movl	%eax, -76(%rbp)
	leaq	-77(%rbp), %rax
	movq	%rax, %rcx
	call	_ZNSaIcEC1Ev
	movl	-76(%rbp), %eax
	cltq
	movq	-72(%rbp), %rdx
	leaq	(%rax,%rdx), %rcx
	leaq	-77(%rbp), %rdx
	movq	-72(%rbp), %rax
	movq	%rdx, %r9
	movq	%rcx, %r8
	movq	%rax, %rdx
	movq	-32(%rbp), %rcx
.LEHB41:
	call	_ZNSt7__cxx1112basic_stringIcSt11char_traitsIcESaIcEEC1IPcvEET_S7_RKS3_
.LEHE41:
	leaq	-77(%rbp), %rax
	movq	%rax, %rcx
	call	_ZNSaIcED1Ev
	jmp	.L197
.L196:
	movq	%rax, %rbx
	leaq	-77(%rbp), %rax
	movq	%rax, %rcx
	call	_ZNSaIcED1Ev
	movq	%rbx, %rax
	movq	%rax, %rcx
.LEHB42:
	call	_Unwind_Resume
.LEHE42:
.L197:
	movq	-32(%rbp), %rax
	leaq	-56(%rbp), %rsp
	popq	%rbx
	popq	%rbp
	ret
	.seh_handler	__gxx_personality_seh0, @unwind, @except
	.seh_handlerdata
.LLSDA1824:
	.byte	0xff
	.byte	0xff
	.byte	0x1
	.uleb128 .LLSDACSE1824-.LLSDACSB1824
.LLSDACSB1824:
	.uleb128 .LEHB40-.LFB1824
	.uleb128 .LEHE40-.LEHB40
	.uleb128 0
	.uleb128 0
	.uleb128 .LEHB41-.LFB1824
	.uleb128 .LEHE41-.LEHB41
	.uleb128 .L196-.LFB1824
	.uleb128 0
	.uleb128 .LEHB42-.LFB1824
	.uleb128 .LEHE42-.LEHB42
	.uleb128 0
	.uleb128 0
.LLSDACSE1824:
	.section	.text$_ZN9__gnu_cxx12__to_xstringINSt7__cxx1112basic_stringIcSt11char_traitsIcESaIcEEEcEET_PFiPT0_yPKS8_PcEySB_z,"x"
	.linkonce discard
	.seh_endproc
	.section	.text$_ZNSt7__cxx1112basic_stringIcSt11char_traitsIcESaIcEE12_Alloc_hiderD1Ev,"x"
	.linkonce discard
	.align 2
	.globl	_ZNSt7__cxx1112basic_stringIcSt11char_traitsIcESaIcEE12_Alloc_hiderD1Ev
	.def	_ZNSt7__cxx1112basic_stringIcSt11char_traitsIcESaIcEE12_Alloc_hiderD1Ev;	.scl	2;	.type	32;	.endef
	.seh_proc	_ZNSt7__cxx1112basic_stringIcSt11char_traitsIcESaIcEE12_Alloc_hiderD1Ev
_ZNSt7__cxx1112basic_stringIcSt11char_traitsIcESaIcEE12_Alloc_hiderD1Ev:
.LFB1828:
	pushq	%rbp
	.seh_pushreg	%rbp
	movq	%rsp, %rbp
	.seh_setframe	%rbp, 0
	subq	$32, %rsp
	.seh_stackalloc	32
	.seh_endprologue
	movq	%rcx, 16(%rbp)
	movq	16(%rbp), %rcx
	call	_ZNSaIcED2Ev
	nop
	addq	$32, %rsp
	popq	%rbp
	ret
	.seh_endproc
	.section	.text$_ZStplIcSt11char_traitsIcESaIcEENSt7__cxx1112basic_stringIT_T0_T1_EERKS8_PKS5_,"x"
	.linkonce discard
	.globl	_ZStplIcSt11char_traitsIcESaIcEENSt7__cxx1112basic_stringIT_T0_T1_EERKS8_PKS5_
	.def	_ZStplIcSt11char_traitsIcESaIcEENSt7__cxx1112basic_stringIT_T0_T1_EERKS8_PKS5_;	.scl	2;	.type	32;	.endef
	.seh_proc	_ZStplIcSt11char_traitsIcESaIcEENSt7__cxx1112basic_stringIT_T0_T1_EERKS8_PKS5_
_ZStplIcSt11char_traitsIcESaIcEENSt7__cxx1112basic_stringIT_T0_T1_EERKS8_PKS5_:
.LFB1982:
	pushq	%rbp
	.seh_pushreg	%rbp
	pushq	%rbx
	.seh_pushreg	%rbx
	subq	$40, %rsp
	.seh_stackalloc	40
	leaq	128(%rsp), %rbp
	.seh_setframe	%rbp, 128
	.seh_endprologue
	movq	%rcx, -64(%rbp)
	movq	%rdx, -56(%rbp)
	movq	%r8, -48(%rbp)
	movq	-56(%rbp), %rax
	movq	%rax, %rdx
	movq	-64(%rbp), %rcx
.LEHB43:
	call	_ZNSt7__cxx1112basic_stringIcSt11char_traitsIcESaIcEEC1ERKS4_
.LEHE43:
	movq	-48(%rbp), %rax
	movq	%rax, %rdx
	movq	-64(%rbp), %rcx
.LEHB44:
	call	_ZNSt7__cxx1112basic_stringIcSt11char_traitsIcESaIcEE6appendEPKc
.LEHE44:
	jmp	.L203
.L202:
	movq	%rax, %rbx
	movq	-64(%rbp), %rcx
	call	_ZNSt7__cxx1112basic_stringIcSt11char_traitsIcESaIcEED1Ev
	movq	%rbx, %rax
	movq	%rax, %rcx
.LEHB45:
	call	_Unwind_Resume
.LEHE45:
.L203:
	movq	-64(%rbp), %rax
	addq	$40, %rsp
	popq	%rbx
	popq	%rbp
	ret
	.seh_handler	__gxx_personality_seh0, @unwind, @except
	.seh_handlerdata
.LLSDA1982:
	.byte	0xff
	.byte	0xff
	.byte	0x1
	.uleb128 .LLSDACSE1982-.LLSDACSB1982
.LLSDACSB1982:
	.uleb128 .LEHB43-.LFB1982
	.uleb128 .LEHE43-.LEHB43
	.uleb128 0
	.uleb128 0
	.uleb128 .LEHB44-.LFB1982
	.uleb128 .LEHE44-.LEHB44
	.uleb128 .L202-.LFB1982
	.uleb128 0
	.uleb128 .LEHB45-.LFB1982
	.uleb128 .LEHE45-.LEHB45
	.uleb128 0
	.uleb128 0
.LLSDACSE1982:
	.section	.text$_ZStplIcSt11char_traitsIcESaIcEENSt7__cxx1112basic_stringIT_T0_T1_EERKS8_PKS5_,"x"
	.linkonce discard
	.seh_endproc
	.section	.text$_ZStplIcSt11char_traitsIcESaIcEENSt7__cxx1112basic_stringIT_T0_T1_EEPKS5_OS8_,"x"
	.linkonce discard
	.globl	_ZStplIcSt11char_traitsIcESaIcEENSt7__cxx1112basic_stringIT_T0_T1_EEPKS5_OS8_
	.def	_ZStplIcSt11char_traitsIcESaIcEENSt7__cxx1112basic_stringIT_T0_T1_EEPKS5_OS8_;	.scl	2;	.type	32;	.endef
	.seh_proc	_ZStplIcSt11char_traitsIcESaIcEENSt7__cxx1112basic_stringIT_T0_T1_EEPKS5_OS8_
_ZStplIcSt11char_traitsIcESaIcEENSt7__cxx1112basic_stringIT_T0_T1_EEPKS5_OS8_:
.LFB1984:
	pushq	%rbp
	.seh_pushreg	%rbp
	movq	%rsp, %rbp
	.seh_setframe	%rbp, 0
	subq	$32, %rsp
	.seh_stackalloc	32
	.seh_endprologue
	movq	%rcx, 16(%rbp)
	movq	%rdx, 24(%rbp)
	movq	%r8, 32(%rbp)
	movq	24(%rbp), %rdx
	movq	32(%rbp), %rax
	movq	%rdx, %r8
	movl	$0, %edx
	movq	%rax, %rcx
	call	_ZNSt7__cxx1112basic_stringIcSt11char_traitsIcESaIcEE6insertEyPKc
	movq	%rax, %rcx
	call	_ZSt4moveIRNSt7__cxx1112basic_stringIcSt11char_traitsIcESaIcEEEEONSt16remove_referenceIT_E4typeEOS8_
	movq	%rax, %rdx
	movq	16(%rbp), %rcx
	call	_ZNSt7__cxx1112basic_stringIcSt11char_traitsIcESaIcEEC1EOS4_
	movq	16(%rbp), %rax
	addq	$32, %rsp
	popq	%rbp
	ret
	.seh_endproc
	.section	.text$_ZSteqIcSt11char_traitsIcESaIcEEbRKNSt7__cxx1112basic_stringIT_T0_T1_EEPKS5_,"x"
	.linkonce discard
	.globl	_ZSteqIcSt11char_traitsIcESaIcEEbRKNSt7__cxx1112basic_stringIT_T0_T1_EEPKS5_
	.def	_ZSteqIcSt11char_traitsIcESaIcEEbRKNSt7__cxx1112basic_stringIT_T0_T1_EEPKS5_;	.scl	2;	.type	32;	.endef
	.seh_proc	_ZSteqIcSt11char_traitsIcESaIcEEbRKNSt7__cxx1112basic_stringIT_T0_T1_EEPKS5_
_ZSteqIcSt11char_traitsIcESaIcEEbRKNSt7__cxx1112basic_stringIT_T0_T1_EEPKS5_:
.LFB2018:
	pushq	%rbp
	.seh_pushreg	%rbp
	movq	%rsp, %rbp
	.seh_setframe	%rbp, 0
	subq	$32, %rsp
	.seh_stackalloc	32
	.seh_endprologue
	movq	%rcx, 16(%rbp)
	movq	%rdx, 24(%rbp)
	movq	24(%rbp), %rax
	movq	%rax, %rdx
	movq	16(%rbp), %rcx
	call	_ZNKSt7__cxx1112basic_stringIcSt11char_traitsIcESaIcEE7compareEPKc
	testl	%eax, %eax
	sete	%al
	addq	$32, %rsp
	popq	%rbp
	ret
	.seh_endproc
	.section	.text$_ZN9__gnu_cxxneIPcNSt7__cxx1112basic_stringIcSt11char_traitsIcESaIcEEEEEbRKNS_17__normal_iteratorIT_T0_EESD_,"x"
	.linkonce discard
	.globl	_ZN9__gnu_cxxneIPcNSt7__cxx1112basic_stringIcSt11char_traitsIcESaIcEEEEEbRKNS_17__normal_iteratorIT_T0_EESD_
	.def	_ZN9__gnu_cxxneIPcNSt7__cxx1112basic_stringIcSt11char_traitsIcESaIcEEEEEbRKNS_17__normal_iteratorIT_T0_EESD_;	.scl	2;	.type	32;	.endef
	.seh_proc	_ZN9__gnu_cxxneIPcNSt7__cxx1112basic_stringIcSt11char_traitsIcESaIcEEEEEbRKNS_17__normal_iteratorIT_T0_EESD_
_ZN9__gnu_cxxneIPcNSt7__cxx1112basic_stringIcSt11char_traitsIcESaIcEEEEEbRKNS_17__normal_iteratorIT_T0_EESD_:
.LFB2022:
	pushq	%rbp
	.seh_pushreg	%rbp
	pushq	%rbx
	.seh_pushreg	%rbx
	subq	$40, %rsp
	.seh_stackalloc	40
	leaq	128(%rsp), %rbp
	.seh_setframe	%rbp, 128
	.seh_endprologue
	movq	%rcx, -64(%rbp)
	movq	%rdx, -56(%rbp)
	movq	-64(%rbp), %rcx
	call	_ZNK9__gnu_cxx17__normal_iteratorIPcNSt7__cxx1112basic_stringIcSt11char_traitsIcESaIcEEEE4baseEv
	movq	(%rax), %rbx
	movq	-56(%rbp), %rax
	movq	%rax, %rcx
	call	_ZNK9__gnu_cxx17__normal_iteratorIPcNSt7__cxx1112basic_stringIcSt11char_traitsIcESaIcEEEE4baseEv
	movq	(%rax), %rax
	cmpq	%rax, %rbx
	setne	%al
	addq	$40, %rsp
	popq	%rbx
	popq	%rbp
	ret
	.seh_endproc
	.section	.text$_ZN9__gnu_cxx17__normal_iteratorIPcNSt7__cxx1112basic_stringIcSt11char_traitsIcESaIcEEEEppEv,"x"
	.linkonce discard
	.align 2
	.globl	_ZN9__gnu_cxx17__normal_iteratorIPcNSt7__cxx1112basic_stringIcSt11char_traitsIcESaIcEEEEppEv
	.def	_ZN9__gnu_cxx17__normal_iteratorIPcNSt7__cxx1112basic_stringIcSt11char_traitsIcESaIcEEEEppEv;	.scl	2;	.type	32;	.endef
	.seh_proc	_ZN9__gnu_cxx17__normal_iteratorIPcNSt7__cxx1112basic_stringIcSt11char_traitsIcESaIcEEEEppEv
_ZN9__gnu_cxx17__normal_iteratorIPcNSt7__cxx1112basic_stringIcSt11char_traitsIcESaIcEEEEppEv:
.LFB2023:
	pushq	%rbp
	.seh_pushreg	%rbp
	movq	%rsp, %rbp
	.seh_setframe	%rbp, 0
	.seh_endprologue
	movq	%rcx, 16(%rbp)
	movq	16(%rbp), %rax
	movq	(%rax), %rax
	leaq	1(%rax), %rdx
	movq	16(%rbp), %rax
	movq	%rdx, (%rax)
	movq	16(%rbp), %rax
	popq	%rbp
	ret
	.seh_endproc
	.section	.text$_ZNK9__gnu_cxx17__normal_iteratorIPcNSt7__cxx1112basic_stringIcSt11char_traitsIcESaIcEEEEdeEv,"x"
	.linkonce discard
	.align 2
	.globl	_ZNK9__gnu_cxx17__normal_iteratorIPcNSt7__cxx1112basic_stringIcSt11char_traitsIcESaIcEEEEdeEv
	.def	_ZNK9__gnu_cxx17__normal_iteratorIPcNSt7__cxx1112basic_stringIcSt11char_traitsIcESaIcEEEEdeEv;	.scl	2;	.type	32;	.endef
	.seh_proc	_ZNK9__gnu_cxx17__normal_iteratorIPcNSt7__cxx1112basic_stringIcSt11char_traitsIcESaIcEEEEdeEv
_ZNK9__gnu_cxx17__normal_iteratorIPcNSt7__cxx1112basic_stringIcSt11char_traitsIcESaIcEEEEdeEv:
.LFB2024:
	pushq	%rbp
	.seh_pushreg	%rbp
	movq	%rsp, %rbp
	.seh_setframe	%rbp, 0
	.seh_endprologue
	movq	%rcx, 16(%rbp)
	movq	16(%rbp), %rax
	movq	(%rax), %rax
	popq	%rbp
	ret
	.seh_endproc
	.section	.text$_ZStplIcSt11char_traitsIcESaIcEENSt7__cxx1112basic_stringIT_T0_T1_EEOS8_PKS5_,"x"
	.linkonce discard
	.globl	_ZStplIcSt11char_traitsIcESaIcEENSt7__cxx1112basic_stringIT_T0_T1_EEOS8_PKS5_
	.def	_ZStplIcSt11char_traitsIcESaIcEENSt7__cxx1112basic_stringIT_T0_T1_EEOS8_PKS5_;	.scl	2;	.type	32;	.endef
	.seh_proc	_ZStplIcSt11char_traitsIcESaIcEENSt7__cxx1112basic_stringIT_T0_T1_EEOS8_PKS5_
_ZStplIcSt11char_traitsIcESaIcEENSt7__cxx1112basic_stringIT_T0_T1_EEOS8_PKS5_:
.LFB2026:
	pushq	%rbp
	.seh_pushreg	%rbp
	movq	%rsp, %rbp
	.seh_setframe	%rbp, 0
	subq	$32, %rsp
	.seh_stackalloc	32
	.seh_endprologue
	movq	%rcx, 16(%rbp)
	movq	%rdx, 24(%rbp)
	movq	%r8, 32(%rbp)
	movq	32(%rbp), %rdx
	movq	24(%rbp), %rax
	movq	%rax, %rcx
	call	_ZNSt7__cxx1112basic_stringIcSt11char_traitsIcESaIcEE6appendEPKc
	movq	%rax, %rcx
	call	_ZSt4moveIRNSt7__cxx1112basic_stringIcSt11char_traitsIcESaIcEEEEONSt16remove_referenceIT_E4typeEOS8_
	movq	%rax, %rdx
	movq	16(%rbp), %rcx
	call	_ZNSt7__cxx1112basic_stringIcSt11char_traitsIcESaIcEEC1EOS4_
	movq	16(%rbp), %rax
	addq	$32, %rsp
	popq	%rbp
	ret
	.seh_endproc
	.section	.text$_ZNSt7__cxx1112basic_stringIcSt11char_traitsIcESaIcEEC1IPcvEET_S7_RKS3_,"x"
	.linkonce discard
	.align 2
	.globl	_ZNSt7__cxx1112basic_stringIcSt11char_traitsIcESaIcEEC1IPcvEET_S7_RKS3_
	.def	_ZNSt7__cxx1112basic_stringIcSt11char_traitsIcESaIcEEC1IPcvEET_S7_RKS3_;	.scl	2;	.type	32;	.endef
	.seh_proc	_ZNSt7__cxx1112basic_stringIcSt11char_traitsIcESaIcEEC1IPcvEET_S7_RKS3_
_ZNSt7__cxx1112basic_stringIcSt11char_traitsIcESaIcEEC1IPcvEET_S7_RKS3_:
.LFB2048:
	pushq	%rbp
	.seh_pushreg	%rbp
	pushq	%rbx
	.seh_pushreg	%rbx
	subq	$40, %rsp
	.seh_stackalloc	40
	leaq	128(%rsp), %rbp
	.seh_setframe	%rbp, 128
	.seh_endprologue
	movq	%rcx, -64(%rbp)
	movq	%rdx, -56(%rbp)
	movq	%r8, -48(%rbp)
	movq	%r9, -40(%rbp)
	movq	-64(%rbp), %rbx
	movq	-64(%rbp), %rcx
.LEHB46:
	call	_ZNSt7__cxx1112basic_stringIcSt11char_traitsIcESaIcEE13_M_local_dataEv
	movq	%rax, %rdx
	movq	-40(%rbp), %rax
	movq	%rax, %r8
	movq	%rbx, %rcx
	call	_ZNSt7__cxx1112basic_stringIcSt11char_traitsIcESaIcEE12_Alloc_hiderC1EPcRKS3_
.LEHE46:
	movq	-48(%rbp), %rdx
	movq	-56(%rbp), %rax
	movq	%rdx, %r8
	movq	%rax, %rdx
	movq	-64(%rbp), %rcx
.LEHB47:
	call	_ZNSt7__cxx1112basic_stringIcSt11char_traitsIcESaIcEE12_M_constructIPcEEvT_S7_
.LEHE47:
	jmp	.L219
.L218:
	movq	%rax, %rbx
	movq	-64(%rbp), %rax
	movq	%rax, %rcx
	call	_ZNSt7__cxx1112basic_stringIcSt11char_traitsIcESaIcEE12_Alloc_hiderD1Ev
	movq	%rbx, %rax
	movq	%rax, %rcx
.LEHB48:
	call	_Unwind_Resume
	nop
.LEHE48:
.L219:
	addq	$40, %rsp
	popq	%rbx
	popq	%rbp
	ret
	.seh_handler	__gxx_personality_seh0, @unwind, @except
	.seh_handlerdata
.LLSDA2048:
	.byte	0xff
	.byte	0xff
	.byte	0x1
	.uleb128 .LLSDACSE2048-.LLSDACSB2048
.LLSDACSB2048:
	.uleb128 .LEHB46-.LFB2048
	.uleb128 .LEHE46-.LEHB46
	.uleb128 0
	.uleb128 0
	.uleb128 .LEHB47-.LFB2048
	.uleb128 .LEHE47-.LEHB47
	.uleb128 .L218-.LFB2048
	.uleb128 0
	.uleb128 .LEHB48-.LFB2048
	.uleb128 .LEHE48-.LEHB48
	.uleb128 0
	.uleb128 0
.LLSDACSE2048:
	.section	.text$_ZNSt7__cxx1112basic_stringIcSt11char_traitsIcESaIcEEC1IPcvEET_S7_RKS3_,"x"
	.linkonce discard
	.seh_endproc
	.section	.text$_ZSt4moveIRNSt7__cxx1112basic_stringIcSt11char_traitsIcESaIcEEEEONSt16remove_referenceIT_E4typeEOS8_,"x"
	.linkonce discard
	.globl	_ZSt4moveIRNSt7__cxx1112basic_stringIcSt11char_traitsIcESaIcEEEEONSt16remove_referenceIT_E4typeEOS8_
	.def	_ZSt4moveIRNSt7__cxx1112basic_stringIcSt11char_traitsIcESaIcEEEEONSt16remove_referenceIT_E4typeEOS8_;	.scl	2;	.type	32;	.endef
	.seh_proc	_ZSt4moveIRNSt7__cxx1112basic_stringIcSt11char_traitsIcESaIcEEEEONSt16remove_referenceIT_E4typeEOS8_
_ZSt4moveIRNSt7__cxx1112basic_stringIcSt11char_traitsIcESaIcEEEEONSt16remove_referenceIT_E4typeEOS8_:
.LFB2149:
	pushq	%rbp
	.seh_pushreg	%rbp
	movq	%rsp, %rbp
	.seh_setframe	%rbp, 0
	.seh_endprologue
	movq	%rcx, 16(%rbp)
	movq	16(%rbp), %rax
	popq	%rbp
	ret
	.seh_endproc
	.section	.text$_ZNK9__gnu_cxx17__normal_iteratorIPcNSt7__cxx1112basic_stringIcSt11char_traitsIcESaIcEEEE4baseEv,"x"
	.linkonce discard
	.align 2
	.globl	_ZNK9__gnu_cxx17__normal_iteratorIPcNSt7__cxx1112basic_stringIcSt11char_traitsIcESaIcEEEE4baseEv
	.def	_ZNK9__gnu_cxx17__normal_iteratorIPcNSt7__cxx1112basic_stringIcSt11char_traitsIcESaIcEEEE4baseEv;	.scl	2;	.type	32;	.endef
	.seh_proc	_ZNK9__gnu_cxx17__normal_iteratorIPcNSt7__cxx1112basic_stringIcSt11char_traitsIcESaIcEEEE4baseEv
_ZNK9__gnu_cxx17__normal_iteratorIPcNSt7__cxx1112basic_stringIcSt11char_traitsIcESaIcEEEE4baseEv:
.LFB2170:
	pushq	%rbp
	.seh_pushreg	%rbp
	movq	%rsp, %rbp
	.seh_setframe	%rbp, 0
	.seh_endprologue
	movq	%rcx, 16(%rbp)
	movq	16(%rbp), %rax
	popq	%rbp
	ret
	.seh_endproc
	.section	.text$_ZNSt7__cxx1112basic_stringIcSt11char_traitsIcESaIcEE12_M_constructIPcEEvT_S7_,"x"
	.linkonce discard
	.align 2
	.globl	_ZNSt7__cxx1112basic_stringIcSt11char_traitsIcESaIcEE12_M_constructIPcEEvT_S7_
	.def	_ZNSt7__cxx1112basic_stringIcSt11char_traitsIcESaIcEE12_M_constructIPcEEvT_S7_;	.scl	2;	.type	32;	.endef
	.seh_proc	_ZNSt7__cxx1112basic_stringIcSt11char_traitsIcESaIcEE12_M_constructIPcEEvT_S7_
_ZNSt7__cxx1112basic_stringIcSt11char_traitsIcESaIcEE12_M_constructIPcEEvT_S7_:
.LFB2200:
	pushq	%rbp
	.seh_pushreg	%rbp
	movq	%rsp, %rbp
	.seh_setframe	%rbp, 0
	subq	$48, %rsp
	.seh_stackalloc	48
	.seh_endprologue
	movq	%rcx, 16(%rbp)
	movq	%rdx, 24(%rbp)
	movq	%r8, 32(%rbp)
	movq	32(%rbp), %rdx
	movq	24(%rbp), %rax
	movq	%rdx, %r8
	movq	%rax, %rdx
	movq	16(%rbp), %rcx
	call	_ZNSt7__cxx1112basic_stringIcSt11char_traitsIcESaIcEE16_M_construct_auxIPcEEvT_S7_St12__false_type
	nop
	addq	$48, %rsp
	popq	%rbp
	ret
	.seh_endproc
	.section	.text$_ZNSt7__cxx1112basic_stringIcSt11char_traitsIcESaIcEE16_M_construct_auxIPcEEvT_S7_St12__false_type,"x"
	.linkonce discard
	.align 2
	.globl	_ZNSt7__cxx1112basic_stringIcSt11char_traitsIcESaIcEE16_M_construct_auxIPcEEvT_S7_St12__false_type
	.def	_ZNSt7__cxx1112basic_stringIcSt11char_traitsIcESaIcEE16_M_construct_auxIPcEEvT_S7_St12__false_type;	.scl	2;	.type	32;	.endef
	.seh_proc	_ZNSt7__cxx1112basic_stringIcSt11char_traitsIcESaIcEE16_M_construct_auxIPcEEvT_S7_St12__false_type
_ZNSt7__cxx1112basic_stringIcSt11char_traitsIcESaIcEE16_M_construct_auxIPcEEvT_S7_St12__false_type:
.LFB2240:
	pushq	%rbp
	.seh_pushreg	%rbp
	movq	%rsp, %rbp
	.seh_setframe	%rbp, 0
	subq	$48, %rsp
	.seh_stackalloc	48
	.seh_endprologue
	movq	%rcx, 16(%rbp)
	movq	%rdx, 24(%rbp)
	movq	%r8, 32(%rbp)
	movb	%r9b, 40(%rbp)
	movq	32(%rbp), %rdx
	movq	24(%rbp), %rax
	movl	%r10d, %r9d
	movq	%rdx, %r8
	movq	%rax, %rdx
	movq	16(%rbp), %rcx
	call	_ZNSt7__cxx1112basic_stringIcSt11char_traitsIcESaIcEE12_M_constructIPcEEvT_S7_St20forward_iterator_tag
	nop
	addq	$48, %rsp
	popq	%rbp
	ret
	.seh_endproc
	.section .rdata,"dr"
	.align 8
.LC41:
	.ascii "basic_string::_M_construct null not valid\0"
	.section	.text$_ZNSt7__cxx1112basic_stringIcSt11char_traitsIcESaIcEE12_M_constructIPcEEvT_S7_St20forward_iterator_tag,"x"
	.linkonce discard
	.align 2
	.globl	_ZNSt7__cxx1112basic_stringIcSt11char_traitsIcESaIcEE12_M_constructIPcEEvT_S7_St20forward_iterator_tag
	.def	_ZNSt7__cxx1112basic_stringIcSt11char_traitsIcESaIcEE12_M_constructIPcEEvT_S7_St20forward_iterator_tag;	.scl	2;	.type	32;	.endef
	.seh_proc	_ZNSt7__cxx1112basic_stringIcSt11char_traitsIcESaIcEE12_M_constructIPcEEvT_S7_St20forward_iterator_tag
_ZNSt7__cxx1112basic_stringIcSt11char_traitsIcESaIcEE12_M_constructIPcEEvT_S7_St20forward_iterator_tag:
.LFB2272:
	pushq	%rbp
	.seh_pushreg	%rbp
	pushq	%rbx
	.seh_pushreg	%rbx
	subq	$56, %rsp
	.seh_stackalloc	56
	leaq	128(%rsp), %rbp
	.seh_setframe	%rbp, 128
	.seh_endprologue
	movq	%rcx, -48(%rbp)
	movq	%rdx, -40(%rbp)
	movq	%r8, -32(%rbp)
	movb	%r9b, -24(%rbp)
	movq	-40(%rbp), %rax
	movq	%rax, %rcx
	call	_ZN9__gnu_cxx17__is_null_pointerIcEEbPT_
	testb	%al, %al
	je	.L227
	movq	-40(%rbp), %rax
	cmpq	-32(%rbp), %rax
	je	.L227
	movl	$1, %eax
	jmp	.L228
.L227:
	movl	$0, %eax
.L228:
	testb	%al, %al
	je	.L229
	leaq	.LC41(%rip), %rcx
.LEHB49:
	call	_ZSt19__throw_logic_errorPKc
.L229:
	movq	-32(%rbp), %rdx
	movq	-40(%rbp), %rax
	movq	%rax, %rcx
	call	_ZSt8distanceIPcENSt15iterator_traitsIT_E15difference_typeES2_S2_
	movq	%rax, -88(%rbp)
	movq	-88(%rbp), %rax
	cmpq	$15, %rax
	jbe	.L230
	leaq	-88(%rbp), %rax
	movl	$0, %r8d
	movq	%rax, %rdx
	movq	-48(%rbp), %rcx
	call	_ZNSt7__cxx1112basic_stringIcSt11char_traitsIcESaIcEE9_M_createERyy
	movq	%rax, %rdx
	movq	-48(%rbp), %rcx
	call	_ZNSt7__cxx1112basic_stringIcSt11char_traitsIcESaIcEE7_M_dataEPc
	movq	-88(%rbp), %rax
	movq	%rax, %rdx
	movq	-48(%rbp), %rcx
	call	_ZNSt7__cxx1112basic_stringIcSt11char_traitsIcESaIcEE11_M_capacityEy
.LEHE49:
.L230:
	movq	-48(%rbp), %rcx
.LEHB50:
	call	_ZNKSt7__cxx1112basic_stringIcSt11char_traitsIcESaIcEE7_M_dataEv
.LEHE50:
	movq	%rax, %rcx
	movq	-32(%rbp), %rdx
	movq	-40(%rbp), %rax
	movq	%rdx, %r8
	movq	%rax, %rdx
	call	_ZNSt7__cxx1112basic_stringIcSt11char_traitsIcESaIcEE13_S_copy_charsEPcS5_S5_
	movq	-88(%rbp), %rax
	movq	%rax, %rdx
	movq	-48(%rbp), %rcx
.LEHB51:
	call	_ZNSt7__cxx1112basic_stringIcSt11char_traitsIcESaIcEE13_M_set_lengthEy
.LEHE51:
	jmp	.L235
.L233:
	movq	%rax, %rcx
	call	__cxa_begin_catch
	movq	-48(%rbp), %rcx
.LEHB52:
	call	_ZNSt7__cxx1112basic_stringIcSt11char_traitsIcESaIcEE10_M_disposeEv
	call	__cxa_rethrow
.LEHE52:
.L234:
	movq	%rax, %rbx
	call	__cxa_end_catch
	movq	%rbx, %rax
	movq	%rax, %rcx
.LEHB53:
	call	_Unwind_Resume
	nop
.LEHE53:
.L235:
	addq	$56, %rsp
	popq	%rbx
	popq	%rbp
	ret
	.seh_handler	__gxx_personality_seh0, @unwind, @except
	.seh_handlerdata
	.align 4
.LLSDA2272:
	.byte	0xff
	.byte	0x9b
	.uleb128 .LLSDATT2272-.LLSDATTD2272
.LLSDATTD2272:
	.byte	0x1
	.uleb128 .LLSDACSE2272-.LLSDACSB2272
.LLSDACSB2272:
	.uleb128 .LEHB49-.LFB2272
	.uleb128 .LEHE49-.LEHB49
	.uleb128 0
	.uleb128 0
	.uleb128 .LEHB50-.LFB2272
	.uleb128 .LEHE50-.LEHB50
	.uleb128 .L233-.LFB2272
	.uleb128 0x1
	.uleb128 .LEHB51-.LFB2272
	.uleb128 .LEHE51-.LEHB51
	.uleb128 0
	.uleb128 0
	.uleb128 .LEHB52-.LFB2272
	.uleb128 .LEHE52-.LEHB52
	.uleb128 .L234-.LFB2272
	.uleb128 0
	.uleb128 .LEHB53-.LFB2272
	.uleb128 .LEHE53-.LEHB53
	.uleb128 0
	.uleb128 0
.LLSDACSE2272:
	.byte	0x1
	.byte	0
	.align 4
	.long	0

.LLSDATT2272:
	.section	.text$_ZNSt7__cxx1112basic_stringIcSt11char_traitsIcESaIcEE12_M_constructIPcEEvT_S7_St20forward_iterator_tag,"x"
	.linkonce discard
	.seh_endproc
	.section	.text$_ZN9__gnu_cxx17__is_null_pointerIcEEbPT_,"x"
	.linkonce discard
	.globl	_ZN9__gnu_cxx17__is_null_pointerIcEEbPT_
	.def	_ZN9__gnu_cxx17__is_null_pointerIcEEbPT_;	.scl	2;	.type	32;	.endef
	.seh_proc	_ZN9__gnu_cxx17__is_null_pointerIcEEbPT_
_ZN9__gnu_cxx17__is_null_pointerIcEEbPT_:
.LFB2300:
	pushq	%rbp
	.seh_pushreg	%rbp
	movq	%rsp, %rbp
	.seh_setframe	%rbp, 0
	.seh_endprologue
	movq	%rcx, 16(%rbp)
	cmpq	$0, 16(%rbp)
	sete	%al
	popq	%rbp
	ret
	.seh_endproc
	.section	.text$_ZSt8distanceIPcENSt15iterator_traitsIT_E15difference_typeES2_S2_,"x"
	.linkonce discard
	.globl	_ZSt8distanceIPcENSt15iterator_traitsIT_E15difference_typeES2_S2_
	.def	_ZSt8distanceIPcENSt15iterator_traitsIT_E15difference_typeES2_S2_;	.scl	2;	.type	32;	.endef
	.seh_proc	_ZSt8distanceIPcENSt15iterator_traitsIT_E15difference_typeES2_S2_
_ZSt8distanceIPcENSt15iterator_traitsIT_E15difference_typeES2_S2_:
.LFB2301:
	pushq	%rbp
	.seh_pushreg	%rbp
	pushq	%rbx
	.seh_pushreg	%rbx
	subq	$56, %rsp
	.seh_stackalloc	56
	leaq	128(%rsp), %rbp
	.seh_setframe	%rbp, 128
	.seh_endprologue
	movq	%rcx, -48(%rbp)
	movq	%rdx, -40(%rbp)
	leaq	-48(%rbp), %rcx
	call	_ZSt19__iterator_categoryIPcENSt15iterator_traitsIT_E17iterator_categoryERKS2_
	movq	-48(%rbp), %rax
	movq	-40(%rbp), %rdx
	movl	%ebx, %r8d
	movq	%rax, %rcx
	call	_ZSt10__distanceIPcENSt15iterator_traitsIT_E15difference_typeES2_S2_St26random_access_iterator_tag
	nop
	addq	$56, %rsp
	popq	%rbx
	popq	%rbp
	ret
	.seh_endproc
	.section	.text$_ZSt19__iterator_categoryIPcENSt15iterator_traitsIT_E17iterator_categoryERKS2_,"x"
	.linkonce discard
	.globl	_ZSt19__iterator_categoryIPcENSt15iterator_traitsIT_E17iterator_categoryERKS2_
	.def	_ZSt19__iterator_categoryIPcENSt15iterator_traitsIT_E17iterator_categoryERKS2_;	.scl	2;	.type	32;	.endef
	.seh_proc	_ZSt19__iterator_categoryIPcENSt15iterator_traitsIT_E17iterator_categoryERKS2_
_ZSt19__iterator_categoryIPcENSt15iterator_traitsIT_E17iterator_categoryERKS2_:
.LFB2325:
	pushq	%rbp
	.seh_pushreg	%rbp
	movq	%rsp, %rbp
	.seh_setframe	%rbp, 0
	.seh_endprologue
	movq	%rcx, 16(%rbp)
	popq	%rbp
	ret
	.seh_endproc
	.section	.text$_ZSt10__distanceIPcENSt15iterator_traitsIT_E15difference_typeES2_S2_St26random_access_iterator_tag,"x"
	.linkonce discard
	.globl	_ZSt10__distanceIPcENSt15iterator_traitsIT_E15difference_typeES2_S2_St26random_access_iterator_tag
	.def	_ZSt10__distanceIPcENSt15iterator_traitsIT_E15difference_typeES2_S2_St26random_access_iterator_tag;	.scl	2;	.type	32;	.endef
	.seh_proc	_ZSt10__distanceIPcENSt15iterator_traitsIT_E15difference_typeES2_S2_St26random_access_iterator_tag
_ZSt10__distanceIPcENSt15iterator_traitsIT_E15difference_typeES2_S2_St26random_access_iterator_tag:
.LFB2326:
	pushq	%rbp
	.seh_pushreg	%rbp
	movq	%rsp, %rbp
	.seh_setframe	%rbp, 0
	.seh_endprologue
	movq	%rcx, 16(%rbp)
	movq	%rdx, 24(%rbp)
	movb	%r8b, 32(%rbp)
	movq	24(%rbp), %rax
	subq	16(%rbp), %rax
	popq	%rbp
	ret
	.seh_endproc
	.globl	_ZTV17charecterToNumber
	.section	.rdata$_ZTV17charecterToNumber,"dr"
	.linkonce same_size
	.align 8
_ZTV17charecterToNumber:
	.quad	0
	.quad	_ZTI17charecterToNumber
	.quad	_ZN17charecterToNumber7EncryptEv
	.quad	_ZN4text2InERSt14basic_ifstreamIcSt11char_traitsIcEE
	.quad	_ZN4text5InRndEv
	.quad	_ZN17charecterToNumber3OutERSt14basic_ofstreamIcSt11char_traitsIcEE
	.globl	_ZTV20charecterReplacement
	.section	.rdata$_ZTV20charecterReplacement,"dr"
	.linkonce same_size
	.align 8
_ZTV20charecterReplacement:
	.quad	0
	.quad	_ZTI20charecterReplacement
	.quad	_ZN20charecterReplacement7EncryptEv
	.quad	_ZN4text2InERSt14basic_ifstreamIcSt11char_traitsIcEE
	.quad	_ZN4text5InRndEv
	.quad	_ZN20charecterReplacement3OutERSt14basic_ofstreamIcSt11char_traitsIcEE
	.globl	_ZTV11cyclicShift
	.section	.rdata$_ZTV11cyclicShift,"dr"
	.linkonce same_size
	.align 8
_ZTV11cyclicShift:
	.quad	0
	.quad	_ZTI11cyclicShift
	.quad	_ZN11cyclicShift7EncryptEv
	.quad	_ZN11cyclicShift2InERSt14basic_ifstreamIcSt11char_traitsIcEE
	.quad	_ZN11cyclicShift5InRndEv
	.quad	_ZN11cyclicShift3OutERSt14basic_ofstreamIcSt11char_traitsIcEE
	.globl	_ZTV4text
	.section	.rdata$_ZTV4text,"dr"
	.linkonce same_size
	.align 8
_ZTV4text:
	.quad	0
	.quad	_ZTI4text
	.quad	_ZN4text7EncryptEv
	.quad	_ZN4text2InERSt14basic_ifstreamIcSt11char_traitsIcEE
	.quad	_ZN4text5InRndEv
	.quad	_ZN4text3OutERSt14basic_ofstreamIcSt11char_traitsIcEE
	.globl	_ZTI17charecterToNumber
	.section	.rdata$_ZTI17charecterToNumber,"dr"
	.linkonce same_size
	.align 8
_ZTI17charecterToNumber:
	.quad	_ZTVN10__cxxabiv120__si_class_type_infoE+16
	.quad	_ZTS17charecterToNumber
	.quad	_ZTI4text
	.globl	_ZTS17charecterToNumber
	.section	.rdata$_ZTS17charecterToNumber,"dr"
	.linkonce same_size
	.align 16
_ZTS17charecterToNumber:
	.ascii "17charecterToNumber\0"
	.globl	_ZTI20charecterReplacement
	.section	.rdata$_ZTI20charecterReplacement,"dr"
	.linkonce same_size
	.align 8
_ZTI20charecterReplacement:
	.quad	_ZTVN10__cxxabiv120__si_class_type_infoE+16
	.quad	_ZTS20charecterReplacement
	.quad	_ZTI4text
	.globl	_ZTS20charecterReplacement
	.section	.rdata$_ZTS20charecterReplacement,"dr"
	.linkonce same_size
	.align 16
_ZTS20charecterReplacement:
	.ascii "20charecterReplacement\0"
	.globl	_ZTI11cyclicShift
	.section	.rdata$_ZTI11cyclicShift,"dr"
	.linkonce same_size
	.align 8
_ZTI11cyclicShift:
	.quad	_ZTVN10__cxxabiv120__si_class_type_infoE+16
	.quad	_ZTS11cyclicShift
	.quad	_ZTI4text
	.globl	_ZTS11cyclicShift
	.section	.rdata$_ZTS11cyclicShift,"dr"
	.linkonce same_size
	.align 8
_ZTS11cyclicShift:
	.ascii "11cyclicShift\0"
	.globl	_ZTI4text
	.section	.rdata$_ZTI4text,"dr"
	.linkonce same_size
	.align 8
_ZTI4text:
	.quad	_ZTVN10__cxxabiv117__class_type_infoE+16
	.quad	_ZTS4text
	.globl	_ZTS4text
	.section	.rdata$_ZTS4text,"dr"
	.linkonce same_size
_ZTS4text:
	.ascii "4text\0"
	.text
	.def	__tcf_0;	.scl	3;	.type	32;	.endef
	.seh_proc	__tcf_0
__tcf_0:
.LFB2338:
	pushq	%rbp
	.seh_pushreg	%rbp
	movq	%rsp, %rbp
	.seh_setframe	%rbp, 0
	subq	$32, %rsp
	.seh_stackalloc	32
	.seh_endprologue
	leaq	_ZStL8__ioinit(%rip), %rcx
	call	_ZNSt8ios_base4InitD1Ev
	nop
	addq	$32, %rsp
	popq	%rbp
	ret
	.seh_endproc
	.def	__tcf_1;	.scl	3;	.type	32;	.endef
	.seh_proc	__tcf_1
__tcf_1:
.LFB2339:
	pushq	%rbp
	.seh_pushreg	%rbp
	pushq	%rbx
	.seh_pushreg	%rbx
	subq	$40, %rsp
	.seh_stackalloc	40
	leaq	128(%rsp), %rbp
	.seh_setframe	%rbp, 128
	.seh_endprologue
	leaq	14304+_ZL10sourceText(%rip), %rbx
.L247:
	leaq	_ZL10sourceText(%rip), %rax
	cmpq	%rax, %rbx
	je	.L245
	subq	$32, %rbx
	movq	%rbx, %rcx
	call	_ZNSt7__cxx1112basic_stringIcSt11char_traitsIcESaIcEED1Ev
	jmp	.L247
.L245:
	addq	$40, %rsp
	popq	%rbx
	popq	%rbp
	ret
	.seh_endproc
	.section .rdata,"dr"
.LC42:
	.ascii "Alvarez\0"
.LC43:
	.ascii "on\0"
.LC44:
	.ascii "the\0"
.LC45:
	.ascii "open\0"
.LC46:
	.ascii "door\0"
.LC47:
	.ascii "and\0"
.LC48:
	.ascii "stepped\0"
.LC49:
	.ascii "into\0"
.LC50:
	.ascii "office\0"
.LC51:
	.ascii "You\0"
.LC52:
	.ascii "asked\0"
.LC53:
	.ascii "for\0"
.LC54:
	.ascii "me,\0"
.LC55:
	.ascii "sir?\0"
.LC56:
	.ascii "Dr.\0"
.LC57:
	.ascii "Gears\0"
.LC58:
	.ascii "looked\0"
.LC59:
	.ascii "up\0"
.LC60:
	.ascii "from\0"
.LC61:
	.ascii "files\0"
.LC62:
	.ascii "his\0"
.LC63:
	.ascii "desk,\0"
.LC64:
	.ascii "fixing\0"
.LC65:
	.ascii "gaze\0"
.LC66:
	.ascii "young\0"
.LC67:
	.ascii "security\0"
.LC68:
	.ascii "guard.\0"
.LC69:
	.ascii "Yes,\0"
.LC70:
	.ascii "Ive\0"
.LC71:
	.ascii "been\0"
.LC72:
	.ascii "trying\0"
.LC73:
	.ascii "to\0"
.LC74:
	.ascii "contact\0"
.LC75:
	.ascii "Clef\0"
.LC76:
	.ascii "all\0"
.LC77:
	.ascii "evening,\0"
.LC78:
	.ascii "but\0"
.LC79:
	.ascii "hes\0"
.LC80:
	.ascii "not\0"
.LC81:
	.ascii "answering\0"
.LC82:
	.ascii "phone.\0"
.LC83:
	.ascii "Id\0"
.LC84:
	.ascii "like\0"
.LC85:
	.ascii "you\0"
.LC86:
	.ascii "locate\0"
.LC87:
	.ascii "him\0"
.LC88:
	.ascii "make\0"
.LC89:
	.ascii "sure\0"
.LC90:
	.ascii "right,\0"
.LC91:
	.ascii "tell\0"
.LC92:
	.ascii "I\0"
.LC93:
	.ascii "have\0"
.LC94:
	.ascii "something\0"
.LC95:
	.ascii "urgent\0"
.LC96:
	.ascii "discuss\0"
.LC97:
	.ascii "with\0"
.LC98:
	.ascii "him.\0"
.LC99:
	.ascii "But\0"
.LC100:
	.ascii "sir,\0"
.LC101:
	.ascii "its\0"
.LC102:
	.ascii "Friday\0"
.LC103:
	.ascii "night,\0"
.LC104:
	.ascii "said,\0"
.LC105:
	.ascii "suddenly\0"
.LC106:
	.ascii "uncomfortable.\0"
.LC107:
	.ascii "If\0"
.LC108:
	.ascii "youll\0"
.LC109:
	.ascii "recall\342\200\246\0"
.LC110:
	.ascii "Oh,\0"
.LC111:
	.ascii "see.\0"
.LC112:
	.ascii "Its\0"
.LC113:
	.ascii "his\342\200\246\0"
.LC114:
	.ascii "yes.And\0"
.LC115:
	.ascii "he\0"
.LC116:
	.ascii "cant\342\200\246\0"
.LC117:
	.ascii "Hes\0"
.LC118:
	.ascii "left\0"
.LC119:
	.ascii "instructions\0"
.LC120:
	.ascii "that\0"
.LC121:
	.ascii "be\0"
.LC122:
	.ascii "disturbed\0"
.LC123:
	.ascii "under\0"
.LC124:
	.ascii "any\0"
.LC125:
	.ascii "circumstances,\0"
.LC126:
	.ascii "thats\0"
.LC127:
	.ascii "sir.\0"
.LC128:
	.ascii "Well,\0"
.LC129:
	.ascii "suppose\0"
.LC130:
	.ascii "things\0"
.LC131:
	.ascii "can\0"
.LC132:
	.ascii "wait\0"
.LC133:
	.ascii "until\0"
.LC134:
	.ascii "tomorrow\0"
.LC135:
	.ascii "morning,\0"
.LC136:
	.ascii "then.\0"
.LC137:
	.ascii "Very\0"
.LC138:
	.ascii "well,\0"
.LC139:
	.ascii "office.Dr.\0"
.LC140:
	.ascii "Alto\0"
.LC141:
	.ascii "sat\0"
.LC142:
	.ascii "in\0"
.LC143:
	.ascii "dining\0"
.LC144:
	.ascii "room\0"
.LC145:
	.ascii "of\0"
.LC146:
	.ascii "Site-19\0"
.LC147:
	.ascii "suite.\0"
.LC148:
	.ascii "The\0"
.LC149:
	.ascii "place\0"
.LC150:
	.ascii "was\0"
.LC151:
	.ascii "lavish,\0"
.LC152:
	.ascii "by\0"
.LC153:
	.ascii "standards\0"
.LC154:
	.ascii "\342\200\223\0"
.LC155:
	.ascii "gold-embossed\0"
.LC156:
	.ascii "wallpaper,\0"
.LC157:
	.ascii "ornate\0"
.LC158:
	.ascii "oak\0"
.LC159:
	.ascii "paneling,\0"
.LC160:
	.ascii "18th\0"
.LC161:
	.ascii "century\0"
.LC162:
	.ascii "furniture,\0"
.LC163:
	.ascii "table\0"
.LC164:
	.ascii "set\0"
.LC165:
	.ascii "priceless\0"
.LC166:
	.ascii "china\0"
.LC167:
	.ascii "finest\0"
.LC168:
	.ascii "silver.\0"
.LC169:
	.ascii "An\0"
.LC170:
	.ascii "antique\0"
.LC171:
	.ascii "Ming\0"
.LC172:
	.ascii "vase\0"
.LC173:
	.ascii "a\0"
.LC174:
	.ascii "pedestal\0"
.LC175:
	.ascii "nearby,\0"
.LC176:
	.ascii "gleaming\0"
.LC177:
	.ascii "warm\0"
.LC178:
	.ascii "glow\0"
.LC179:
	.ascii "crystal\0"
.LC180:
	.ascii "chandelier;\0"
.LC181:
	.ascii "an\0"
.LC182:
	.ascii "original\0"
.LC183:
	.ascii "Caravaggio\0"
.LC184:
	.ascii "hung\0"
.LC185:
	.ascii "one\0"
.LC186:
	.ascii "wall,\0"
.LC187:
	.ascii "Vermeer\0"
.LC188:
	.ascii "other.\0"
.LC189:
	.ascii "Barry\0"
.LC190:
	.ascii "White\0"
.LC191:
	.ascii "played\0"
.LC192:
	.ascii "softly\0"
.LC193:
	.ascii "background.Mmmh!\0"
.LC194:
	.ascii "exclaimed,\0"
.LC195:
	.ascii "setting\0"
.LC196:
	.ascii "down\0"
.LC197:
	.ascii "spoon\0"
.LC198:
	.ascii "wiping\0"
.LC199:
	.ascii "mouth\0"
.LC200:
	.ascii "napkin.\0"
.LC201:
	.ascii "fennel\0"
.LC202:
	.ascii "soup\0"
.LC203:
	.ascii "exquisite.\0"
.LC204:
	.ascii "D-12130\0"
.LC205:
	.ascii "really\0"
.LC206:
	.ascii "outdid\0"
.LC207:
	.ascii "himself\0"
.LC208:
	.ascii "tonight\0"
.LC209:
	.ascii "He\0"
.LC210:
	.ascii "gestured\0"
.LC211:
	.ascii "several\0"
.LC212:
	.ascii "D-class\0"
.LC213:
	.ascii "personnel\0"
.LC214:
	.ascii "attendance.\0"
.LC215:
	.ascii "More\0"
.LC216:
	.ascii "wine,\0"
.LC217:
	.ascii "D-23897.\0"
.LC218:
	.ascii "Right\0"
.LC219:
	.ascii "away,\0"
.LC220:
	.ascii "Clef,\0"
.LC221:
	.ascii "man\0"
.LC222:
	.ascii "orange\0"
.LC223:
	.ascii "jumpsuit\0"
.LC224:
	.ascii "nervously\0"
.LC225:
	.ascii "stepping\0"
.LC226:
	.ascii "refilling\0"
.LC227:
	.ascii "glass\0"
.LC228:
	.ascii "particularly\0"
.LC229:
	.ascii "crisp\0"
.LC230:
	.ascii "Chardonnay.Clef\0"
.LC231:
	.ascii "lifted\0"
.LC232:
	.ascii "mouth,\0"
.LC233:
	.ascii "took\0"
.LC234:
	.ascii "sip,\0"
.LC235:
	.ascii "sighed\0"
.LC236:
	.ascii "satisfaction.\0"
.LC237:
	.ascii "This\0"
.LC238:
	.ascii "is\0"
.LC239:
	.ascii "nice,\0"
.LC240:
	.ascii "smiling\0"
.LC241:
	.ascii "at\0"
.LC242:
	.ascii "guest.\0"
.LC243:
	.ascii "We\0"
.LC244:
	.ascii "should\0"
.LC245:
	.ascii "do\0"
.LC246:
	.ascii "this\0"
.LC247:
	.ascii "more\0"
.LC248:
	.ascii "often,\0"
.LC249:
	.ascii "dont\0"
.LC250:
	.ascii "agree?\0"
.LC251:
	.ascii "Across\0"
.LC252:
	.ascii "table,\0"
.LC253:
	.ascii "SCP-173\0"
.LC254:
	.ascii "stared\0"
.LC255:
	.ascii "back\0"
.LC256:
	.ascii "him,\0"
.LC257:
	.ascii "unmoving,\0"
.LC258:
	.ascii "silent.Five\0"
.LC259:
	.ascii "were\0"
.LC260:
	.ascii "positioned\0"
.LC261:
	.ascii "around\0"
.LC262:
	.ascii "living\0"
.LC263:
	.ascii "statue,\0"
.LC264:
	.ascii "their\0"
.LC265:
	.ascii "eyes\0"
.LC266:
	.ascii "fixed\0"
.LC267:
	.ascii "it,\0"
.LC268:
	.ascii "cold\0"
.LC269:
	.ascii "sweat\0"
.LC270:
	.ascii "dripping\0"
.LC271:
	.ascii "faces\0"
.LC272:
	.ascii "as\0"
.LC273:
	.ascii "they\0"
.LC274:
	.ascii "struggled\0"
.LC275:
	.ascii "blink,\0"
.LC276:
	.ascii "break\0"
.LC277:
	.ascii "eye\0"
.LC278:
	.ascii "contact,\0"
.LC279:
	.ascii "even\0"
.LC280:
	.ascii "second;\0"
.LC281:
	.ascii "sixth\0"
.LC282:
	.ascii "stood\0"
.LC283:
	.ascii "directly\0"
.LC284:
	.ascii "next\0"
.LC285:
	.ascii "173,\0"
.LC286:
	.ascii "trembling\0"
.LC287:
	.ascii "terror\0"
.LC288:
	.ascii "spoonfuls\0"
.LC289:
	.ascii "face,\0"
.LC290:
	.ascii "smearing\0"
.LC291:
	.ascii "contents\0"
.LC292:
	.ascii "where\0"
.LC293:
	.ascii "been.May\0"
.LC294:
	.ascii "just\0"
.LC295:
	.ascii "say\0"
.LC296:
	.ascii "how\0"
.LC297:
	.ascii "lovely\0"
.LC298:
	.ascii "look\0"
.LC299:
	.ascii "tonight,\0"
.LC300:
	.ascii "darling,\0"
.LC301:
	.ascii "moving\0"
.LC302:
	.ascii "appreciatively\0"
.LC303:
	.ascii "over\0"
.LC304:
	.ascii "black\0"
.LC305:
	.ascii "evening\0"
.LC306:
	.ascii "dress\0"
.LC307:
	.ascii "covering\0"
.LC308:
	.ascii "statues\0"
.LC309:
	.ascii "curves,\0"
.LC310:
	.ascii "blonde,\0"
.LC311:
	.ascii "lustrous\0"
.LC312:
	.ascii "hair\0"
.LC313:
	.ascii "wig\0"
.LC314:
	.ascii "head,\0"
.LC315:
	.ascii "rouged\0"
.LC316:
	.ascii "stone\0"
.LC317:
	.ascii "cheeks\342\200\246\0"
.LC318:
	.ascii "going\0"
.LC319:
	.ascii "later,\0"
.LC320:
	.ascii "seeing\0"
.LC321:
	.ascii "this,\0"
.LC322:
	.ascii "just,\0"
.LC323:
	.ascii "I\342\200\246\0"
.LC324:
	.ascii "Heh,\0"
.LC325:
	.ascii "me\0"
.LC326:
	.ascii "babbling\0"
.LC327:
	.ascii "schoolboy.\0"
.LC328:
	.ascii "know\0"
.LC329:
	.ascii "what\0"
.LC330:
	.ascii "it\0"
.LC331:
	.ascii "about\0"
.LC332:
	.ascii "you.\0"
.LC333:
	.ascii "Youve\0"
.LC334:
	.ascii "always\0"
.LC335:
	.ascii "had\0"
.LC336:
	.ascii "effect\0"
.LC337:
	.ascii "me.\0"
	.text
	.def	_Z41__static_initialization_and_destruction_0ii;	.scl	3;	.type	32;	.endef
	.seh_proc	_Z41__static_initialization_and_destruction_0ii
_Z41__static_initialization_and_destruction_0ii:
.LFB2337:
	pushq	%rbp
	.seh_pushreg	%rbp
	pushq	%rdi
	.seh_pushreg	%rdi
	pushq	%rsi
	.seh_pushreg	%rsi
	pushq	%rbx
	.seh_pushreg	%rbx
	subq	$488, %rsp
	.seh_stackalloc	488
	leaq	128(%rsp), %rbp
	.seh_setframe	%rbp, 128
	.seh_endprologue
	movl	%ecx, 400(%rbp)
	movl	%edx, 408(%rbp)
	cmpl	$1, 400(%rbp)
	jne	.L248
	cmpl	$65535, 408(%rbp)
	jne	.L248
	leaq	_ZStL8__ioinit(%rip), %rcx
.LEHB54:
	call	_ZNSt8ios_base4InitC1Ev
.LEHE54:
	leaq	__tcf_0(%rip), %rcx
	call	atexit
	leaq	_ZL10sourceText(%rip), %rdi
	movl	$446, %ebx
	leaq	-95(%rbp), %rax
	movq	%rax, %rcx
	call	_ZNSaIcEC1Ev
	leaq	-95(%rbp), %rax
	movq	%rax, %r8
	leaq	.LC42(%rip), %rdx
	movq	%rdi, %rcx
.LEHB55:
	call	_ZNSt7__cxx1112basic_stringIcSt11char_traitsIcESaIcEEC1EPKcRKS3_
.LEHE55:
	leaq	-95(%rbp), %rax
	movq	%rax, %rcx
	call	_ZNSaIcED1Ev
	leaq	32(%rdi), %rsi
	subq	$1, %rbx
	leaq	-94(%rbp), %rax
	movq	%rax, %rcx
	call	_ZNSaIcEC1Ev
	leaq	-94(%rbp), %rax
	movq	%rax, %r8
	leaq	.LC43(%rip), %rdx
	movq	%rsi, %rcx
.LEHB56:
	call	_ZNSt7__cxx1112basic_stringIcSt11char_traitsIcESaIcEEC1EPKcRKS3_
.LEHE56:
	leaq	-94(%rbp), %rax
	movq	%rax, %rcx
	call	_ZNSaIcED1Ev
	addq	$32, %rsi
	subq	$1, %rbx
	leaq	-93(%rbp), %rax
	movq	%rax, %rcx
	call	_ZNSaIcEC1Ev
	leaq	-93(%rbp), %rax
	movq	%rax, %r8
	leaq	.LC44(%rip), %rdx
	movq	%rsi, %rcx
.LEHB57:
	call	_ZNSt7__cxx1112basic_stringIcSt11char_traitsIcESaIcEEC1EPKcRKS3_
.LEHE57:
	leaq	-93(%rbp), %rax
	movq	%rax, %rcx
	call	_ZNSaIcED1Ev
	addq	$32, %rsi
	subq	$1, %rbx
	leaq	-92(%rbp), %rax
	movq	%rax, %rcx
	call	_ZNSaIcEC1Ev
	leaq	-92(%rbp), %rax
	movq	%rax, %r8
	leaq	.LC45(%rip), %rdx
	movq	%rsi, %rcx
.LEHB58:
	call	_ZNSt7__cxx1112basic_stringIcSt11char_traitsIcESaIcEEC1EPKcRKS3_
.LEHE58:
	leaq	-92(%rbp), %rax
	movq	%rax, %rcx
	call	_ZNSaIcED1Ev
	addq	$32, %rsi
	subq	$1, %rbx
	leaq	-91(%rbp), %rax
	movq	%rax, %rcx
	call	_ZNSaIcEC1Ev
	leaq	-91(%rbp), %rax
	movq	%rax, %r8
	leaq	.LC46(%rip), %rdx
	movq	%rsi, %rcx
.LEHB59:
	call	_ZNSt7__cxx1112basic_stringIcSt11char_traitsIcESaIcEEC1EPKcRKS3_
.LEHE59:
	leaq	-91(%rbp), %rax
	movq	%rax, %rcx
	call	_ZNSaIcED1Ev
	addq	$32, %rsi
	subq	$1, %rbx
	leaq	-90(%rbp), %rax
	movq	%rax, %rcx
	call	_ZNSaIcEC1Ev
	leaq	-90(%rbp), %rax
	movq	%rax, %r8
	leaq	.LC47(%rip), %rdx
	movq	%rsi, %rcx
.LEHB60:
	call	_ZNSt7__cxx1112basic_stringIcSt11char_traitsIcESaIcEEC1EPKcRKS3_
.LEHE60:
	leaq	-90(%rbp), %rax
	movq	%rax, %rcx
	call	_ZNSaIcED1Ev
	addq	$32, %rsi
	subq	$1, %rbx
	leaq	-89(%rbp), %rax
	movq	%rax, %rcx
	call	_ZNSaIcEC1Ev
	leaq	-89(%rbp), %rax
	movq	%rax, %r8
	leaq	.LC48(%rip), %rdx
	movq	%rsi, %rcx
.LEHB61:
	call	_ZNSt7__cxx1112basic_stringIcSt11char_traitsIcESaIcEEC1EPKcRKS3_
.LEHE61:
	leaq	-89(%rbp), %rax
	movq	%rax, %rcx
	call	_ZNSaIcED1Ev
	addq	$32, %rsi
	subq	$1, %rbx
	leaq	-88(%rbp), %rax
	movq	%rax, %rcx
	call	_ZNSaIcEC1Ev
	leaq	-88(%rbp), %rax
	movq	%rax, %r8
	leaq	.LC49(%rip), %rdx
	movq	%rsi, %rcx
.LEHB62:
	call	_ZNSt7__cxx1112basic_stringIcSt11char_traitsIcESaIcEEC1EPKcRKS3_
.LEHE62:
	leaq	-88(%rbp), %rax
	movq	%rax, %rcx
	call	_ZNSaIcED1Ev
	addq	$32, %rsi
	subq	$1, %rbx
	leaq	-87(%rbp), %rax
	movq	%rax, %rcx
	call	_ZNSaIcEC1Ev
	leaq	-87(%rbp), %rax
	movq	%rax, %r8
	leaq	.LC44(%rip), %rdx
	movq	%rsi, %rcx
.LEHB63:
	call	_ZNSt7__cxx1112basic_stringIcSt11char_traitsIcESaIcEEC1EPKcRKS3_
.LEHE63:
	leaq	-87(%rbp), %rax
	movq	%rax, %rcx
	call	_ZNSaIcED1Ev
	addq	$32, %rsi
	subq	$1, %rbx
	leaq	-86(%rbp), %rax
	movq	%rax, %rcx
	call	_ZNSaIcEC1Ev
	leaq	-86(%rbp), %rax
	movq	%rax, %r8
	leaq	.LC50(%rip), %rdx
	movq	%rsi, %rcx
.LEHB64:
	call	_ZNSt7__cxx1112basic_stringIcSt11char_traitsIcESaIcEEC1EPKcRKS3_
.LEHE64:
	leaq	-86(%rbp), %rax
	movq	%rax, %rcx
	call	_ZNSaIcED1Ev
	addq	$32, %rsi
	subq	$1, %rbx
	leaq	-85(%rbp), %rax
	movq	%rax, %rcx
	call	_ZNSaIcEC1Ev
	leaq	-85(%rbp), %rax
	movq	%rax, %r8
	leaq	.LC51(%rip), %rdx
	movq	%rsi, %rcx
.LEHB65:
	call	_ZNSt7__cxx1112basic_stringIcSt11char_traitsIcESaIcEEC1EPKcRKS3_
.LEHE65:
	leaq	-85(%rbp), %rax
	movq	%rax, %rcx
	call	_ZNSaIcED1Ev
	addq	$32, %rsi
	subq	$1, %rbx
	leaq	-84(%rbp), %rax
	movq	%rax, %rcx
	call	_ZNSaIcEC1Ev
	leaq	-84(%rbp), %rax
	movq	%rax, %r8
	leaq	.LC52(%rip), %rdx
	movq	%rsi, %rcx
.LEHB66:
	call	_ZNSt7__cxx1112basic_stringIcSt11char_traitsIcESaIcEEC1EPKcRKS3_
.LEHE66:
	leaq	-84(%rbp), %rax
	movq	%rax, %rcx
	call	_ZNSaIcED1Ev
	addq	$32, %rsi
	subq	$1, %rbx
	leaq	-83(%rbp), %rax
	movq	%rax, %rcx
	call	_ZNSaIcEC1Ev
	leaq	-83(%rbp), %rax
	movq	%rax, %r8
	leaq	.LC53(%rip), %rdx
	movq	%rsi, %rcx
.LEHB67:
	call	_ZNSt7__cxx1112basic_stringIcSt11char_traitsIcESaIcEEC1EPKcRKS3_
.LEHE67:
	leaq	-83(%rbp), %rax
	movq	%rax, %rcx
	call	_ZNSaIcED1Ev
	addq	$32, %rsi
	subq	$1, %rbx
	leaq	-82(%rbp), %rax
	movq	%rax, %rcx
	call	_ZNSaIcEC1Ev
	leaq	-82(%rbp), %rax
	movq	%rax, %r8
	leaq	.LC54(%rip), %rdx
	movq	%rsi, %rcx
.LEHB68:
	call	_ZNSt7__cxx1112basic_stringIcSt11char_traitsIcESaIcEEC1EPKcRKS3_
.LEHE68:
	leaq	-82(%rbp), %rax
	movq	%rax, %rcx
	call	_ZNSaIcED1Ev
	addq	$32, %rsi
	subq	$1, %rbx
	leaq	-81(%rbp), %rax
	movq	%rax, %rcx
	call	_ZNSaIcEC1Ev
	leaq	-81(%rbp), %rax
	movq	%rax, %r8
	leaq	.LC55(%rip), %rdx
	movq	%rsi, %rcx
.LEHB69:
	call	_ZNSt7__cxx1112basic_stringIcSt11char_traitsIcESaIcEEC1EPKcRKS3_
.LEHE69:
	leaq	-81(%rbp), %rax
	movq	%rax, %rcx
	call	_ZNSaIcED1Ev
	addq	$32, %rsi
	subq	$1, %rbx
	leaq	-80(%rbp), %rax
	movq	%rax, %rcx
	call	_ZNSaIcEC1Ev
	leaq	-80(%rbp), %rax
	movq	%rax, %r8
	leaq	.LC56(%rip), %rdx
	movq	%rsi, %rcx
.LEHB70:
	call	_ZNSt7__cxx1112basic_stringIcSt11char_traitsIcESaIcEEC1EPKcRKS3_
.LEHE70:
	leaq	-80(%rbp), %rax
	movq	%rax, %rcx
	call	_ZNSaIcED1Ev
	addq	$32, %rsi
	subq	$1, %rbx
	leaq	-79(%rbp), %rax
	movq	%rax, %rcx
	call	_ZNSaIcEC1Ev
	leaq	-79(%rbp), %rax
	movq	%rax, %r8
	leaq	.LC57(%rip), %rdx
	movq	%rsi, %rcx
.LEHB71:
	call	_ZNSt7__cxx1112basic_stringIcSt11char_traitsIcESaIcEEC1EPKcRKS3_
.LEHE71:
	leaq	-79(%rbp), %rax
	movq	%rax, %rcx
	call	_ZNSaIcED1Ev
	addq	$32, %rsi
	subq	$1, %rbx
	leaq	-78(%rbp), %rax
	movq	%rax, %rcx
	call	_ZNSaIcEC1Ev
	leaq	-78(%rbp), %rax
	movq	%rax, %r8
	leaq	.LC58(%rip), %rdx
	movq	%rsi, %rcx
.LEHB72:
	call	_ZNSt7__cxx1112basic_stringIcSt11char_traitsIcESaIcEEC1EPKcRKS3_
.LEHE72:
	leaq	-78(%rbp), %rax
	movq	%rax, %rcx
	call	_ZNSaIcED1Ev
	addq	$32, %rsi
	subq	$1, %rbx
	leaq	-77(%rbp), %rax
	movq	%rax, %rcx
	call	_ZNSaIcEC1Ev
	leaq	-77(%rbp), %rax
	movq	%rax, %r8
	leaq	.LC59(%rip), %rdx
	movq	%rsi, %rcx
.LEHB73:
	call	_ZNSt7__cxx1112basic_stringIcSt11char_traitsIcESaIcEEC1EPKcRKS3_
.LEHE73:
	leaq	-77(%rbp), %rax
	movq	%rax, %rcx
	call	_ZNSaIcED1Ev
	addq	$32, %rsi
	subq	$1, %rbx
	leaq	-76(%rbp), %rax
	movq	%rax, %rcx
	call	_ZNSaIcEC1Ev
	leaq	-76(%rbp), %rax
	movq	%rax, %r8
	leaq	.LC60(%rip), %rdx
	movq	%rsi, %rcx
.LEHB74:
	call	_ZNSt7__cxx1112basic_stringIcSt11char_traitsIcESaIcEEC1EPKcRKS3_
.LEHE74:
	leaq	-76(%rbp), %rax
	movq	%rax, %rcx
	call	_ZNSaIcED1Ev
	addq	$32, %rsi
	subq	$1, %rbx
	leaq	-75(%rbp), %rax
	movq	%rax, %rcx
	call	_ZNSaIcEC1Ev
	leaq	-75(%rbp), %rax
	movq	%rax, %r8
	leaq	.LC44(%rip), %rdx
	movq	%rsi, %rcx
.LEHB75:
	call	_ZNSt7__cxx1112basic_stringIcSt11char_traitsIcESaIcEEC1EPKcRKS3_
.LEHE75:
	leaq	-75(%rbp), %rax
	movq	%rax, %rcx
	call	_ZNSaIcED1Ev
	addq	$32, %rsi
	subq	$1, %rbx
	leaq	-74(%rbp), %rax
	movq	%rax, %rcx
	call	_ZNSaIcEC1Ev
	leaq	-74(%rbp), %rax
	movq	%rax, %r8
	leaq	.LC61(%rip), %rdx
	movq	%rsi, %rcx
.LEHB76:
	call	_ZNSt7__cxx1112basic_stringIcSt11char_traitsIcESaIcEEC1EPKcRKS3_
.LEHE76:
	leaq	-74(%rbp), %rax
	movq	%rax, %rcx
	call	_ZNSaIcED1Ev
	addq	$32, %rsi
	subq	$1, %rbx
	leaq	-73(%rbp), %rax
	movq	%rax, %rcx
	call	_ZNSaIcEC1Ev
	leaq	-73(%rbp), %rax
	movq	%rax, %r8
	leaq	.LC43(%rip), %rdx
	movq	%rsi, %rcx
.LEHB77:
	call	_ZNSt7__cxx1112basic_stringIcSt11char_traitsIcESaIcEEC1EPKcRKS3_
.LEHE77:
	leaq	-73(%rbp), %rax
	movq	%rax, %rcx
	call	_ZNSaIcED1Ev
	addq	$32, %rsi
	subq	$1, %rbx
	leaq	-72(%rbp), %rax
	movq	%rax, %rcx
	call	_ZNSaIcEC1Ev
	leaq	-72(%rbp), %rax
	movq	%rax, %r8
	leaq	.LC62(%rip), %rdx
	movq	%rsi, %rcx
.LEHB78:
	call	_ZNSt7__cxx1112basic_stringIcSt11char_traitsIcESaIcEEC1EPKcRKS3_
.LEHE78:
	leaq	-72(%rbp), %rax
	movq	%rax, %rcx
	call	_ZNSaIcED1Ev
	addq	$32, %rsi
	subq	$1, %rbx
	leaq	-71(%rbp), %rax
	movq	%rax, %rcx
	call	_ZNSaIcEC1Ev
	leaq	-71(%rbp), %rax
	movq	%rax, %r8
	leaq	.LC63(%rip), %rdx
	movq	%rsi, %rcx
.LEHB79:
	call	_ZNSt7__cxx1112basic_stringIcSt11char_traitsIcESaIcEEC1EPKcRKS3_
.LEHE79:
	leaq	-71(%rbp), %rax
	movq	%rax, %rcx
	call	_ZNSaIcED1Ev
	addq	$32, %rsi
	subq	$1, %rbx
	leaq	-70(%rbp), %rax
	movq	%rax, %rcx
	call	_ZNSaIcEC1Ev
	leaq	-70(%rbp), %rax
	movq	%rax, %r8
	leaq	.LC64(%rip), %rdx
	movq	%rsi, %rcx
.LEHB80:
	call	_ZNSt7__cxx1112basic_stringIcSt11char_traitsIcESaIcEEC1EPKcRKS3_
.LEHE80:
	leaq	-70(%rbp), %rax
	movq	%rax, %rcx
	call	_ZNSaIcED1Ev
	addq	$32, %rsi
	subq	$1, %rbx
	leaq	-69(%rbp), %rax
	movq	%rax, %rcx
	call	_ZNSaIcEC1Ev
	leaq	-69(%rbp), %rax
	movq	%rax, %r8
	leaq	.LC62(%rip), %rdx
	movq	%rsi, %rcx
.LEHB81:
	call	_ZNSt7__cxx1112basic_stringIcSt11char_traitsIcESaIcEEC1EPKcRKS3_
.LEHE81:
	leaq	-69(%rbp), %rax
	movq	%rax, %rcx
	call	_ZNSaIcED1Ev
	addq	$32, %rsi
	subq	$1, %rbx
	leaq	-68(%rbp), %rax
	movq	%rax, %rcx
	call	_ZNSaIcEC1Ev
	leaq	-68(%rbp), %rax
	movq	%rax, %r8
	leaq	.LC65(%rip), %rdx
	movq	%rsi, %rcx
.LEHB82:
	call	_ZNSt7__cxx1112basic_stringIcSt11char_traitsIcESaIcEEC1EPKcRKS3_
.LEHE82:
	leaq	-68(%rbp), %rax
	movq	%rax, %rcx
	call	_ZNSaIcED1Ev
	addq	$32, %rsi
	subq	$1, %rbx
	leaq	-67(%rbp), %rax
	movq	%rax, %rcx
	call	_ZNSaIcEC1Ev
	leaq	-67(%rbp), %rax
	movq	%rax, %r8
	leaq	.LC43(%rip), %rdx
	movq	%rsi, %rcx
.LEHB83:
	call	_ZNSt7__cxx1112basic_stringIcSt11char_traitsIcESaIcEEC1EPKcRKS3_
.LEHE83:
	leaq	-67(%rbp), %rax
	movq	%rax, %rcx
	call	_ZNSaIcED1Ev
	addq	$32, %rsi
	subq	$1, %rbx
	leaq	-66(%rbp), %rax
	movq	%rax, %rcx
	call	_ZNSaIcEC1Ev
	leaq	-66(%rbp), %rax
	movq	%rax, %r8
	leaq	.LC44(%rip), %rdx
	movq	%rsi, %rcx
.LEHB84:
	call	_ZNSt7__cxx1112basic_stringIcSt11char_traitsIcESaIcEEC1EPKcRKS3_
.LEHE84:
	leaq	-66(%rbp), %rax
	movq	%rax, %rcx
	call	_ZNSaIcED1Ev
	addq	$32, %rsi
	subq	$1, %rbx
	leaq	-65(%rbp), %rax
	movq	%rax, %rcx
	call	_ZNSaIcEC1Ev
	leaq	-65(%rbp), %rax
	movq	%rax, %r8
	leaq	.LC66(%rip), %rdx
	movq	%rsi, %rcx
.LEHB85:
	call	_ZNSt7__cxx1112basic_stringIcSt11char_traitsIcESaIcEEC1EPKcRKS3_
.LEHE85:
	leaq	-65(%rbp), %rax
	movq	%rax, %rcx
	call	_ZNSaIcED1Ev
	addq	$32, %rsi
	subq	$1, %rbx
	leaq	-64(%rbp), %rax
	movq	%rax, %rcx
	call	_ZNSaIcEC1Ev
	leaq	-64(%rbp), %rax
	movq	%rax, %r8
	leaq	.LC67(%rip), %rdx
	movq	%rsi, %rcx
.LEHB86:
	call	_ZNSt7__cxx1112basic_stringIcSt11char_traitsIcESaIcEEC1EPKcRKS3_
.LEHE86:
	leaq	-64(%rbp), %rax
	movq	%rax, %rcx
	call	_ZNSaIcED1Ev
	addq	$32, %rsi
	subq	$1, %rbx
	leaq	-63(%rbp), %rax
	movq	%rax, %rcx
	call	_ZNSaIcEC1Ev
	leaq	-63(%rbp), %rax
	movq	%rax, %r8
	leaq	.LC68(%rip), %rdx
	movq	%rsi, %rcx
.LEHB87:
	call	_ZNSt7__cxx1112basic_stringIcSt11char_traitsIcESaIcEEC1EPKcRKS3_
.LEHE87:
	leaq	-63(%rbp), %rax
	movq	%rax, %rcx
	call	_ZNSaIcED1Ev
	addq	$32, %rsi
	subq	$1, %rbx
	leaq	-62(%rbp), %rax
	movq	%rax, %rcx
	call	_ZNSaIcEC1Ev
	leaq	-62(%rbp), %rax
	movq	%rax, %r8
	leaq	.LC69(%rip), %rdx
	movq	%rsi, %rcx
.LEHB88:
	call	_ZNSt7__cxx1112basic_stringIcSt11char_traitsIcESaIcEEC1EPKcRKS3_
.LEHE88:
	leaq	-62(%rbp), %rax
	movq	%rax, %rcx
	call	_ZNSaIcED1Ev
	addq	$32, %rsi
	subq	$1, %rbx
	leaq	-61(%rbp), %rax
	movq	%rax, %rcx
	call	_ZNSaIcEC1Ev
	leaq	-61(%rbp), %rax
	movq	%rax, %r8
	leaq	.LC70(%rip), %rdx
	movq	%rsi, %rcx
.LEHB89:
	call	_ZNSt7__cxx1112basic_stringIcSt11char_traitsIcESaIcEEC1EPKcRKS3_
.LEHE89:
	leaq	-61(%rbp), %rax
	movq	%rax, %rcx
	call	_ZNSaIcED1Ev
	addq	$32, %rsi
	subq	$1, %rbx
	leaq	-60(%rbp), %rax
	movq	%rax, %rcx
	call	_ZNSaIcEC1Ev
	leaq	-60(%rbp), %rax
	movq	%rax, %r8
	leaq	.LC71(%rip), %rdx
	movq	%rsi, %rcx
.LEHB90:
	call	_ZNSt7__cxx1112basic_stringIcSt11char_traitsIcESaIcEEC1EPKcRKS3_
.LEHE90:
	leaq	-60(%rbp), %rax
	movq	%rax, %rcx
	call	_ZNSaIcED1Ev
	addq	$32, %rsi
	subq	$1, %rbx
	leaq	-59(%rbp), %rax
	movq	%rax, %rcx
	call	_ZNSaIcEC1Ev
	leaq	-59(%rbp), %rax
	movq	%rax, %r8
	leaq	.LC72(%rip), %rdx
	movq	%rsi, %rcx
.LEHB91:
	call	_ZNSt7__cxx1112basic_stringIcSt11char_traitsIcESaIcEEC1EPKcRKS3_
.LEHE91:
	leaq	-59(%rbp), %rax
	movq	%rax, %rcx
	call	_ZNSaIcED1Ev
	addq	$32, %rsi
	subq	$1, %rbx
	leaq	-58(%rbp), %rax
	movq	%rax, %rcx
	call	_ZNSaIcEC1Ev
	leaq	-58(%rbp), %rax
	movq	%rax, %r8
	leaq	.LC73(%rip), %rdx
	movq	%rsi, %rcx
.LEHB92:
	call	_ZNSt7__cxx1112basic_stringIcSt11char_traitsIcESaIcEEC1EPKcRKS3_
.LEHE92:
	leaq	-58(%rbp), %rax
	movq	%rax, %rcx
	call	_ZNSaIcED1Ev
	addq	$32, %rsi
	subq	$1, %rbx
	leaq	-57(%rbp), %rax
	movq	%rax, %rcx
	call	_ZNSaIcEC1Ev
	leaq	-57(%rbp), %rax
	movq	%rax, %r8
	leaq	.LC74(%rip), %rdx
	movq	%rsi, %rcx
.LEHB93:
	call	_ZNSt7__cxx1112basic_stringIcSt11char_traitsIcESaIcEEC1EPKcRKS3_
.LEHE93:
	leaq	-57(%rbp), %rax
	movq	%rax, %rcx
	call	_ZNSaIcED1Ev
	addq	$32, %rsi
	subq	$1, %rbx
	leaq	-56(%rbp), %rax
	movq	%rax, %rcx
	call	_ZNSaIcEC1Ev
	leaq	-56(%rbp), %rax
	movq	%rax, %r8
	leaq	.LC56(%rip), %rdx
	movq	%rsi, %rcx
.LEHB94:
	call	_ZNSt7__cxx1112basic_stringIcSt11char_traitsIcESaIcEEC1EPKcRKS3_
.LEHE94:
	leaq	-56(%rbp), %rax
	movq	%rax, %rcx
	call	_ZNSaIcED1Ev
	addq	$32, %rsi
	subq	$1, %rbx
	leaq	-55(%rbp), %rax
	movq	%rax, %rcx
	call	_ZNSaIcEC1Ev
	leaq	-55(%rbp), %rax
	movq	%rax, %r8
	leaq	.LC75(%rip), %rdx
	movq	%rsi, %rcx
.LEHB95:
	call	_ZNSt7__cxx1112basic_stringIcSt11char_traitsIcESaIcEEC1EPKcRKS3_
.LEHE95:
	leaq	-55(%rbp), %rax
	movq	%rax, %rcx
	call	_ZNSaIcED1Ev
	addq	$32, %rsi
	subq	$1, %rbx
	leaq	-54(%rbp), %rax
	movq	%rax, %rcx
	call	_ZNSaIcEC1Ev
	leaq	-54(%rbp), %rax
	movq	%rax, %r8
	leaq	.LC76(%rip), %rdx
	movq	%rsi, %rcx
.LEHB96:
	call	_ZNSt7__cxx1112basic_stringIcSt11char_traitsIcESaIcEEC1EPKcRKS3_
.LEHE96:
	leaq	-54(%rbp), %rax
	movq	%rax, %rcx
	call	_ZNSaIcED1Ev
	addq	$32, %rsi
	subq	$1, %rbx
	leaq	-53(%rbp), %rax
	movq	%rax, %rcx
	call	_ZNSaIcEC1Ev
	leaq	-53(%rbp), %rax
	movq	%rax, %r8
	leaq	.LC77(%rip), %rdx
	movq	%rsi, %rcx
.LEHB97:
	call	_ZNSt7__cxx1112basic_stringIcSt11char_traitsIcESaIcEEC1EPKcRKS3_
.LEHE97:
	leaq	-53(%rbp), %rax
	movq	%rax, %rcx
	call	_ZNSaIcED1Ev
	addq	$32, %rsi
	subq	$1, %rbx
	leaq	-52(%rbp), %rax
	movq	%rax, %rcx
	call	_ZNSaIcEC1Ev
	leaq	-52(%rbp), %rax
	movq	%rax, %r8
	leaq	.LC78(%rip), %rdx
	movq	%rsi, %rcx
.LEHB98:
	call	_ZNSt7__cxx1112basic_stringIcSt11char_traitsIcESaIcEEC1EPKcRKS3_
.LEHE98:
	leaq	-52(%rbp), %rax
	movq	%rax, %rcx
	call	_ZNSaIcED1Ev
	addq	$32, %rsi
	subq	$1, %rbx
	leaq	-51(%rbp), %rax
	movq	%rax, %rcx
	call	_ZNSaIcEC1Ev
	leaq	-51(%rbp), %rax
	movq	%rax, %r8
	leaq	.LC79(%rip), %rdx
	movq	%rsi, %rcx
.LEHB99:
	call	_ZNSt7__cxx1112basic_stringIcSt11char_traitsIcESaIcEEC1EPKcRKS3_
.LEHE99:
	leaq	-51(%rbp), %rax
	movq	%rax, %rcx
	call	_ZNSaIcED1Ev
	addq	$32, %rsi
	subq	$1, %rbx
	leaq	-50(%rbp), %rax
	movq	%rax, %rcx
	call	_ZNSaIcEC1Ev
	leaq	-50(%rbp), %rax
	movq	%rax, %r8
	leaq	.LC80(%rip), %rdx
	movq	%rsi, %rcx
.LEHB100:
	call	_ZNSt7__cxx1112basic_stringIcSt11char_traitsIcESaIcEEC1EPKcRKS3_
.LEHE100:
	leaq	-50(%rbp), %rax
	movq	%rax, %rcx
	call	_ZNSaIcED1Ev
	addq	$32, %rsi
	subq	$1, %rbx
	leaq	-49(%rbp), %rax
	movq	%rax, %rcx
	call	_ZNSaIcEC1Ev
	leaq	-49(%rbp), %rax
	movq	%rax, %r8
	leaq	.LC81(%rip), %rdx
	movq	%rsi, %rcx
.LEHB101:
	call	_ZNSt7__cxx1112basic_stringIcSt11char_traitsIcESaIcEEC1EPKcRKS3_
.LEHE101:
	leaq	-49(%rbp), %rax
	movq	%rax, %rcx
	call	_ZNSaIcED1Ev
	addq	$32, %rsi
	subq	$1, %rbx
	leaq	-48(%rbp), %rax
	movq	%rax, %rcx
	call	_ZNSaIcEC1Ev
	leaq	-48(%rbp), %rax
	movq	%rax, %r8
	leaq	.LC62(%rip), %rdx
	movq	%rsi, %rcx
.LEHB102:
	call	_ZNSt7__cxx1112basic_stringIcSt11char_traitsIcESaIcEEC1EPKcRKS3_
.LEHE102:
	leaq	-48(%rbp), %rax
	movq	%rax, %rcx
	call	_ZNSaIcED1Ev
	addq	$32, %rsi
	subq	$1, %rbx
	leaq	-47(%rbp), %rax
	movq	%rax, %rcx
	call	_ZNSaIcEC1Ev
	leaq	-47(%rbp), %rax
	movq	%rax, %r8
	leaq	.LC82(%rip), %rdx
	movq	%rsi, %rcx
.LEHB103:
	call	_ZNSt7__cxx1112basic_stringIcSt11char_traitsIcESaIcEEC1EPKcRKS3_
.LEHE103:
	leaq	-47(%rbp), %rax
	movq	%rax, %rcx
	call	_ZNSaIcED1Ev
	addq	$32, %rsi
	subq	$1, %rbx
	leaq	-46(%rbp), %rax
	movq	%rax, %rcx
	call	_ZNSaIcEC1Ev
	leaq	-46(%rbp), %rax
	movq	%rax, %r8
	leaq	.LC83(%rip), %rdx
	movq	%rsi, %rcx
.LEHB104:
	call	_ZNSt7__cxx1112basic_stringIcSt11char_traitsIcESaIcEEC1EPKcRKS3_
.LEHE104:
	leaq	-46(%rbp), %rax
	movq	%rax, %rcx
	call	_ZNSaIcED1Ev
	addq	$32, %rsi
	subq	$1, %rbx
	leaq	-45(%rbp), %rax
	movq	%rax, %rcx
	call	_ZNSaIcEC1Ev
	leaq	-45(%rbp), %rax
	movq	%rax, %r8
	leaq	.LC84(%rip), %rdx
	movq	%rsi, %rcx
.LEHB105:
	call	_ZNSt7__cxx1112basic_stringIcSt11char_traitsIcESaIcEEC1EPKcRKS3_
.LEHE105:
	leaq	-45(%rbp), %rax
	movq	%rax, %rcx
	call	_ZNSaIcED1Ev
	addq	$32, %rsi
	subq	$1, %rbx
	leaq	-44(%rbp), %rax
	movq	%rax, %rcx
	call	_ZNSaIcEC1Ev
	leaq	-44(%rbp), %rax
	movq	%rax, %r8
	leaq	.LC85(%rip), %rdx
	movq	%rsi, %rcx
.LEHB106:
	call	_ZNSt7__cxx1112basic_stringIcSt11char_traitsIcESaIcEEC1EPKcRKS3_
.LEHE106:
	leaq	-44(%rbp), %rax
	movq	%rax, %rcx
	call	_ZNSaIcED1Ev
	addq	$32, %rsi
	subq	$1, %rbx
	leaq	-43(%rbp), %rax
	movq	%rax, %rcx
	call	_ZNSaIcEC1Ev
	leaq	-43(%rbp), %rax
	movq	%rax, %r8
	leaq	.LC73(%rip), %rdx
	movq	%rsi, %rcx
.LEHB107:
	call	_ZNSt7__cxx1112basic_stringIcSt11char_traitsIcESaIcEEC1EPKcRKS3_
.LEHE107:
	leaq	-43(%rbp), %rax
	movq	%rax, %rcx
	call	_ZNSaIcED1Ev
	addq	$32, %rsi
	subq	$1, %rbx
	leaq	-42(%rbp), %rax
	movq	%rax, %rcx
	call	_ZNSaIcEC1Ev
	leaq	-42(%rbp), %rax
	movq	%rax, %r8
	leaq	.LC86(%rip), %rdx
	movq	%rsi, %rcx
.LEHB108:
	call	_ZNSt7__cxx1112basic_stringIcSt11char_traitsIcESaIcEEC1EPKcRKS3_
.LEHE108:
	leaq	-42(%rbp), %rax
	movq	%rax, %rcx
	call	_ZNSaIcED1Ev
	addq	$32, %rsi
	subq	$1, %rbx
	leaq	-41(%rbp), %rax
	movq	%rax, %rcx
	call	_ZNSaIcEC1Ev
	leaq	-41(%rbp), %rax
	movq	%rax, %r8
	leaq	.LC87(%rip), %rdx
	movq	%rsi, %rcx
.LEHB109:
	call	_ZNSt7__cxx1112basic_stringIcSt11char_traitsIcESaIcEEC1EPKcRKS3_
.LEHE109:
	leaq	-41(%rbp), %rax
	movq	%rax, %rcx
	call	_ZNSaIcED1Ev
	addq	$32, %rsi
	subq	$1, %rbx
	leaq	-40(%rbp), %rax
	movq	%rax, %rcx
	call	_ZNSaIcEC1Ev
	leaq	-40(%rbp), %rax
	movq	%rax, %r8
	leaq	.LC73(%rip), %rdx
	movq	%rsi, %rcx
.LEHB110:
	call	_ZNSt7__cxx1112basic_stringIcSt11char_traitsIcESaIcEEC1EPKcRKS3_
.LEHE110:
	leaq	-40(%rbp), %rax
	movq	%rax, %rcx
	call	_ZNSaIcED1Ev
	addq	$32, %rsi
	subq	$1, %rbx
	leaq	-39(%rbp), %rax
	movq	%rax, %rcx
	call	_ZNSaIcEC1Ev
	leaq	-39(%rbp), %rax
	movq	%rax, %r8
	leaq	.LC88(%rip), %rdx
	movq	%rsi, %rcx
.LEHB111:
	call	_ZNSt7__cxx1112basic_stringIcSt11char_traitsIcESaIcEEC1EPKcRKS3_
.LEHE111:
	leaq	-39(%rbp), %rax
	movq	%rax, %rcx
	call	_ZNSaIcED1Ev
	addq	$32, %rsi
	subq	$1, %rbx
	leaq	-38(%rbp), %rax
	movq	%rax, %rcx
	call	_ZNSaIcEC1Ev
	leaq	-38(%rbp), %rax
	movq	%rax, %r8
	leaq	.LC89(%rip), %rdx
	movq	%rsi, %rcx
.LEHB112:
	call	_ZNSt7__cxx1112basic_stringIcSt11char_traitsIcESaIcEEC1EPKcRKS3_
.LEHE112:
	leaq	-38(%rbp), %rax
	movq	%rax, %rcx
	call	_ZNSaIcED1Ev
	addq	$32, %rsi
	subq	$1, %rbx
	leaq	-37(%rbp), %rax
	movq	%rax, %rcx
	call	_ZNSaIcEC1Ev
	leaq	-37(%rbp), %rax
	movq	%rax, %r8
	leaq	.LC79(%rip), %rdx
	movq	%rsi, %rcx
.LEHB113:
	call	_ZNSt7__cxx1112basic_stringIcSt11char_traitsIcESaIcEEC1EPKcRKS3_
.LEHE113:
	leaq	-37(%rbp), %rax
	movq	%rax, %rcx
	call	_ZNSaIcED1Ev
	addq	$32, %rsi
	subq	$1, %rbx
	leaq	-36(%rbp), %rax
	movq	%rax, %rcx
	call	_ZNSaIcEC1Ev
	leaq	-36(%rbp), %rax
	movq	%rax, %r8
	leaq	.LC76(%rip), %rdx
	movq	%rsi, %rcx
.LEHB114:
	call	_ZNSt7__cxx1112basic_stringIcSt11char_traitsIcESaIcEEC1EPKcRKS3_
.LEHE114:
	leaq	-36(%rbp), %rax
	movq	%rax, %rcx
	call	_ZNSaIcED1Ev
	addq	$32, %rsi
	subq	$1, %rbx
	leaq	-35(%rbp), %rax
	movq	%rax, %rcx
	call	_ZNSaIcEC1Ev
	leaq	-35(%rbp), %rax
	movq	%rax, %r8
	leaq	.LC90(%rip), %rdx
	movq	%rsi, %rcx
.LEHB115:
	call	_ZNSt7__cxx1112basic_stringIcSt11char_traitsIcESaIcEEC1EPKcRKS3_
.LEHE115:
	leaq	-35(%rbp), %rax
	movq	%rax, %rcx
	call	_ZNSaIcED1Ev
	addq	$32, %rsi
	subq	$1, %rbx
	leaq	-34(%rbp), %rax
	movq	%rax, %rcx
	call	_ZNSaIcEC1Ev
	leaq	-34(%rbp), %rax
	movq	%rax, %r8
	leaq	.LC47(%rip), %rdx
	movq	%rsi, %rcx
.LEHB116:
	call	_ZNSt7__cxx1112basic_stringIcSt11char_traitsIcESaIcEEC1EPKcRKS3_
.LEHE116:
	leaq	-34(%rbp), %rax
	movq	%rax, %rcx
	call	_ZNSaIcED1Ev
	addq	$32, %rsi
	subq	$1, %rbx
	leaq	-33(%rbp), %rax
	movq	%rax, %rcx
	call	_ZNSaIcEC1Ev
	leaq	-33(%rbp), %rax
	movq	%rax, %r8
	leaq	.LC91(%rip), %rdx
	movq	%rsi, %rcx
.LEHB117:
	call	_ZNSt7__cxx1112basic_stringIcSt11char_traitsIcESaIcEEC1EPKcRKS3_
.LEHE117:
	leaq	-33(%rbp), %rax
	movq	%rax, %rcx
	call	_ZNSaIcED1Ev
	addq	$32, %rsi
	subq	$1, %rbx
	leaq	-32(%rbp), %rax
	movq	%rax, %rcx
	call	_ZNSaIcEC1Ev
	leaq	-32(%rbp), %rax
	movq	%rax, %r8
	leaq	.LC87(%rip), %rdx
	movq	%rsi, %rcx
.LEHB118:
	call	_ZNSt7__cxx1112basic_stringIcSt11char_traitsIcESaIcEEC1EPKcRKS3_
.LEHE118:
	leaq	-32(%rbp), %rax
	movq	%rax, %rcx
	call	_ZNSaIcED1Ev
	addq	$32, %rsi
	subq	$1, %rbx
	leaq	-31(%rbp), %rax
	movq	%rax, %rcx
	call	_ZNSaIcEC1Ev
	leaq	-31(%rbp), %rax
	movq	%rax, %r8
	leaq	.LC92(%rip), %rdx
	movq	%rsi, %rcx
.LEHB119:
	call	_ZNSt7__cxx1112basic_stringIcSt11char_traitsIcESaIcEEC1EPKcRKS3_
.LEHE119:
	leaq	-31(%rbp), %rax
	movq	%rax, %rcx
	call	_ZNSaIcED1Ev
	addq	$32, %rsi
	subq	$1, %rbx
	leaq	-30(%rbp), %rax
	movq	%rax, %rcx
	call	_ZNSaIcEC1Ev
	leaq	-30(%rbp), %rax
	movq	%rax, %r8
	leaq	.LC93(%rip), %rdx
	movq	%rsi, %rcx
.LEHB120:
	call	_ZNSt7__cxx1112basic_stringIcSt11char_traitsIcESaIcEEC1EPKcRKS3_
.LEHE120:
	leaq	-30(%rbp), %rax
	movq	%rax, %rcx
	call	_ZNSaIcED1Ev
	addq	$32, %rsi
	subq	$1, %rbx
	leaq	-29(%rbp), %rax
	movq	%rax, %rcx
	call	_ZNSaIcEC1Ev
	leaq	-29(%rbp), %rax
	movq	%rax, %r8
	leaq	.LC94(%rip), %rdx
	movq	%rsi, %rcx
.LEHB121:
	call	_ZNSt7__cxx1112basic_stringIcSt11char_traitsIcESaIcEEC1EPKcRKS3_
.LEHE121:
	leaq	-29(%rbp), %rax
	movq	%rax, %rcx
	call	_ZNSaIcED1Ev
	addq	$32, %rsi
	subq	$1, %rbx
	leaq	-28(%rbp), %rax
	movq	%rax, %rcx
	call	_ZNSaIcEC1Ev
	leaq	-28(%rbp), %rax
	movq	%rax, %r8
	leaq	.LC95(%rip), %rdx
	movq	%rsi, %rcx
.LEHB122:
	call	_ZNSt7__cxx1112basic_stringIcSt11char_traitsIcESaIcEEC1EPKcRKS3_
.LEHE122:
	leaq	-28(%rbp), %rax
	movq	%rax, %rcx
	call	_ZNSaIcED1Ev
	addq	$32, %rsi
	subq	$1, %rbx
	leaq	-27(%rbp), %rax
	movq	%rax, %rcx
	call	_ZNSaIcEC1Ev
	leaq	-27(%rbp), %rax
	movq	%rax, %r8
	leaq	.LC73(%rip), %rdx
	movq	%rsi, %rcx
.LEHB123:
	call	_ZNSt7__cxx1112basic_stringIcSt11char_traitsIcESaIcEEC1EPKcRKS3_
.LEHE123:
	leaq	-27(%rbp), %rax
	movq	%rax, %rcx
	call	_ZNSaIcED1Ev
	addq	$32, %rsi
	subq	$1, %rbx
	leaq	-26(%rbp), %rax
	movq	%rax, %rcx
	call	_ZNSaIcEC1Ev
	leaq	-26(%rbp), %rax
	movq	%rax, %r8
	leaq	.LC96(%rip), %rdx
	movq	%rsi, %rcx
.LEHB124:
	call	_ZNSt7__cxx1112basic_stringIcSt11char_traitsIcESaIcEEC1EPKcRKS3_
.LEHE124:
	leaq	-26(%rbp), %rax
	movq	%rax, %rcx
	call	_ZNSaIcED1Ev
	addq	$32, %rsi
	subq	$1, %rbx
	leaq	-25(%rbp), %rax
	movq	%rax, %rcx
	call	_ZNSaIcEC1Ev
	leaq	-25(%rbp), %rax
	movq	%rax, %r8
	leaq	.LC97(%rip), %rdx
	movq	%rsi, %rcx
.LEHB125:
	call	_ZNSt7__cxx1112basic_stringIcSt11char_traitsIcESaIcEEC1EPKcRKS3_
.LEHE125:
	leaq	-25(%rbp), %rax
	movq	%rax, %rcx
	call	_ZNSaIcED1Ev
	addq	$32, %rsi
	subq	$1, %rbx
	leaq	-24(%rbp), %rax
	movq	%rax, %rcx
	call	_ZNSaIcEC1Ev
	leaq	-24(%rbp), %rax
	movq	%rax, %r8
	leaq	.LC98(%rip), %rdx
	movq	%rsi, %rcx
.LEHB126:
	call	_ZNSt7__cxx1112basic_stringIcSt11char_traitsIcESaIcEEC1EPKcRKS3_
.LEHE126:
	leaq	-24(%rbp), %rax
	movq	%rax, %rcx
	call	_ZNSaIcED1Ev
	addq	$32, %rsi
	subq	$1, %rbx
	leaq	-23(%rbp), %rax
	movq	%rax, %rcx
	call	_ZNSaIcEC1Ev
	leaq	-23(%rbp), %rax
	movq	%rax, %r8
	leaq	.LC99(%rip), %rdx
	movq	%rsi, %rcx
.LEHB127:
	call	_ZNSt7__cxx1112basic_stringIcSt11char_traitsIcESaIcEEC1EPKcRKS3_
.LEHE127:
	leaq	-23(%rbp), %rax
	movq	%rax, %rcx
	call	_ZNSaIcED1Ev
	addq	$32, %rsi
	subq	$1, %rbx
	leaq	-22(%rbp), %rax
	movq	%rax, %rcx
	call	_ZNSaIcEC1Ev
	leaq	-22(%rbp), %rax
	movq	%rax, %r8
	leaq	.LC100(%rip), %rdx
	movq	%rsi, %rcx
.LEHB128:
	call	_ZNSt7__cxx1112basic_stringIcSt11char_traitsIcESaIcEEC1EPKcRKS3_
.LEHE128:
	leaq	-22(%rbp), %rax
	movq	%rax, %rcx
	call	_ZNSaIcED1Ev
	addq	$32, %rsi
	subq	$1, %rbx
	leaq	-21(%rbp), %rax
	movq	%rax, %rcx
	call	_ZNSaIcEC1Ev
	leaq	-21(%rbp), %rax
	movq	%rax, %r8
	leaq	.LC101(%rip), %rdx
	movq	%rsi, %rcx
.LEHB129:
	call	_ZNSt7__cxx1112basic_stringIcSt11char_traitsIcESaIcEEC1EPKcRKS3_
.LEHE129:
	leaq	-21(%rbp), %rax
	movq	%rax, %rcx
	call	_ZNSaIcED1Ev
	addq	$32, %rsi
	subq	$1, %rbx
	leaq	-20(%rbp), %rax
	movq	%rax, %rcx
	call	_ZNSaIcEC1Ev
	leaq	-20(%rbp), %rax
	movq	%rax, %r8
	leaq	.LC102(%rip), %rdx
	movq	%rsi, %rcx
.LEHB130:
	call	_ZNSt7__cxx1112basic_stringIcSt11char_traitsIcESaIcEEC1EPKcRKS3_
.LEHE130:
	leaq	-20(%rbp), %rax
	movq	%rax, %rcx
	call	_ZNSaIcED1Ev
	addq	$32, %rsi
	subq	$1, %rbx
	leaq	-19(%rbp), %rax
	movq	%rax, %rcx
	call	_ZNSaIcEC1Ev
	leaq	-19(%rbp), %rax
	movq	%rax, %r8
	leaq	.LC103(%rip), %rdx
	movq	%rsi, %rcx
.LEHB131:
	call	_ZNSt7__cxx1112basic_stringIcSt11char_traitsIcESaIcEEC1EPKcRKS3_
.LEHE131:
	leaq	-19(%rbp), %rax
	movq	%rax, %rcx
	call	_ZNSaIcED1Ev
	addq	$32, %rsi
	subq	$1, %rbx
	leaq	-18(%rbp), %rax
	movq	%rax, %rcx
	call	_ZNSaIcEC1Ev
	leaq	-18(%rbp), %rax
	movq	%rax, %r8
	leaq	.LC42(%rip), %rdx
	movq	%rsi, %rcx
.LEHB132:
	call	_ZNSt7__cxx1112basic_stringIcSt11char_traitsIcESaIcEEC1EPKcRKS3_
.LEHE132:
	leaq	-18(%rbp), %rax
	movq	%rax, %rcx
	call	_ZNSaIcED1Ev
	addq	$32, %rsi
	subq	$1, %rbx
	leaq	-17(%rbp), %rax
	movq	%rax, %rcx
	call	_ZNSaIcEC1Ev
	leaq	-17(%rbp), %rax
	movq	%rax, %r8
	leaq	.LC104(%rip), %rdx
	movq	%rsi, %rcx
.LEHB133:
	call	_ZNSt7__cxx1112basic_stringIcSt11char_traitsIcESaIcEEC1EPKcRKS3_
.LEHE133:
	leaq	-17(%rbp), %rax
	movq	%rax, %rcx
	call	_ZNSaIcED1Ev
	addq	$32, %rsi
	subq	$1, %rbx
	leaq	-16(%rbp), %rax
	movq	%rax, %rcx
	call	_ZNSaIcEC1Ev
	leaq	-16(%rbp), %rax
	movq	%rax, %r8
	leaq	.LC105(%rip), %rdx
	movq	%rsi, %rcx
.LEHB134:
	call	_ZNSt7__cxx1112basic_stringIcSt11char_traitsIcESaIcEEC1EPKcRKS3_
.LEHE134:
	leaq	-16(%rbp), %rax
	movq	%rax, %rcx
	call	_ZNSaIcED1Ev
	addq	$32, %rsi
	subq	$1, %rbx
	leaq	-15(%rbp), %rax
	movq	%rax, %rcx
	call	_ZNSaIcEC1Ev
	leaq	-15(%rbp), %rax
	movq	%rax, %r8
	leaq	.LC106(%rip), %rdx
	movq	%rsi, %rcx
.LEHB135:
	call	_ZNSt7__cxx1112basic_stringIcSt11char_traitsIcESaIcEEC1EPKcRKS3_
.LEHE135:
	leaq	-15(%rbp), %rax
	movq	%rax, %rcx
	call	_ZNSaIcED1Ev
	addq	$32, %rsi
	subq	$1, %rbx
	leaq	-14(%rbp), %rax
	movq	%rax, %rcx
	call	_ZNSaIcEC1Ev
	leaq	-14(%rbp), %rax
	movq	%rax, %r8
	leaq	.LC107(%rip), %rdx
	movq	%rsi, %rcx
.LEHB136:
	call	_ZNSt7__cxx1112basic_stringIcSt11char_traitsIcESaIcEEC1EPKcRKS3_
.LEHE136:
	leaq	-14(%rbp), %rax
	movq	%rax, %rcx
	call	_ZNSaIcED1Ev
	addq	$32, %rsi
	subq	$1, %rbx
	leaq	-13(%rbp), %rax
	movq	%rax, %rcx
	call	_ZNSaIcEC1Ev
	leaq	-13(%rbp), %rax
	movq	%rax, %r8
	leaq	.LC108(%rip), %rdx
	movq	%rsi, %rcx
.LEHB137:
	call	_ZNSt7__cxx1112basic_stringIcSt11char_traitsIcESaIcEEC1EPKcRKS3_
.LEHE137:
	leaq	-13(%rbp), %rax
	movq	%rax, %rcx
	call	_ZNSaIcED1Ev
	addq	$32, %rsi
	subq	$1, %rbx
	leaq	-12(%rbp), %rax
	movq	%rax, %rcx
	call	_ZNSaIcEC1Ev
	leaq	-12(%rbp), %rax
	movq	%rax, %r8
	leaq	.LC109(%rip), %rdx
	movq	%rsi, %rcx
.LEHB138:
	call	_ZNSt7__cxx1112basic_stringIcSt11char_traitsIcESaIcEEC1EPKcRKS3_
.LEHE138:
	leaq	-12(%rbp), %rax
	movq	%rax, %rcx
	call	_ZNSaIcED1Ev
	addq	$32, %rsi
	subq	$1, %rbx
	leaq	-11(%rbp), %rax
	movq	%rax, %rcx
	call	_ZNSaIcEC1Ev
	leaq	-11(%rbp), %rax
	movq	%rax, %r8
	leaq	.LC110(%rip), %rdx
	movq	%rsi, %rcx
.LEHB139:
	call	_ZNSt7__cxx1112basic_stringIcSt11char_traitsIcESaIcEEC1EPKcRKS3_
.LEHE139:
	leaq	-11(%rbp), %rax
	movq	%rax, %rcx
	call	_ZNSaIcED1Ev
	addq	$32, %rsi
	subq	$1, %rbx
	leaq	-10(%rbp), %rax
	movq	%rax, %rcx
	call	_ZNSaIcEC1Ev
	leaq	-10(%rbp), %rax
	movq	%rax, %r8
	leaq	.LC92(%rip), %rdx
	movq	%rsi, %rcx
.LEHB140:
	call	_ZNSt7__cxx1112basic_stringIcSt11char_traitsIcESaIcEEC1EPKcRKS3_
.LEHE140:
	leaq	-10(%rbp), %rax
	movq	%rax, %rcx
	call	_ZNSaIcED1Ev
	addq	$32, %rsi
	subq	$1, %rbx
	leaq	-9(%rbp), %rax
	movq	%rax, %rcx
	call	_ZNSaIcEC1Ev
	leaq	-9(%rbp), %rax
	movq	%rax, %r8
	leaq	.LC111(%rip), %rdx
	movq	%rsi, %rcx
.LEHB141:
	call	_ZNSt7__cxx1112basic_stringIcSt11char_traitsIcESaIcEEC1EPKcRKS3_
.LEHE141:
	leaq	-9(%rbp), %rax
	movq	%rax, %rcx
	call	_ZNSaIcED1Ev
	addq	$32, %rsi
	subq	$1, %rbx
	leaq	-8(%rbp), %rax
	movq	%rax, %rcx
	call	_ZNSaIcEC1Ev
	leaq	-8(%rbp), %rax
	movq	%rax, %r8
	leaq	.LC112(%rip), %rdx
	movq	%rsi, %rcx
.LEHB142:
	call	_ZNSt7__cxx1112basic_stringIcSt11char_traitsIcESaIcEEC1EPKcRKS3_
.LEHE142:
	leaq	-8(%rbp), %rax
	movq	%rax, %rcx
	call	_ZNSaIcED1Ev
	addq	$32, %rsi
	subq	$1, %rbx
	leaq	-7(%rbp), %rax
	movq	%rax, %rcx
	call	_ZNSaIcEC1Ev
	leaq	-7(%rbp), %rax
	movq	%rax, %r8
	leaq	.LC113(%rip), %rdx
	movq	%rsi, %rcx
.LEHB143:
	call	_ZNSt7__cxx1112basic_stringIcSt11char_traitsIcESaIcEEC1EPKcRKS3_
.LEHE143:
	leaq	-7(%rbp), %rax
	movq	%rax, %rcx
	call	_ZNSaIcED1Ev
	addq	$32, %rsi
	subq	$1, %rbx
	leaq	-6(%rbp), %rax
	movq	%rax, %rcx
	call	_ZNSaIcEC1Ev
	leaq	-6(%rbp), %rax
	movq	%rax, %r8
	leaq	.LC114(%rip), %rdx
	movq	%rsi, %rcx
.LEHB144:
	call	_ZNSt7__cxx1112basic_stringIcSt11char_traitsIcESaIcEEC1EPKcRKS3_
.LEHE144:
	leaq	-6(%rbp), %rax
	movq	%rax, %rcx
	call	_ZNSaIcED1Ev
	addq	$32, %rsi
	subq	$1, %rbx
	leaq	-5(%rbp), %rax
	movq	%rax, %rcx
	call	_ZNSaIcEC1Ev
	leaq	-5(%rbp), %rax
	movq	%rax, %r8
	leaq	.LC115(%rip), %rdx
	movq	%rsi, %rcx
.LEHB145:
	call	_ZNSt7__cxx1112basic_stringIcSt11char_traitsIcESaIcEEC1EPKcRKS3_
.LEHE145:
	leaq	-5(%rbp), %rax
	movq	%rax, %rcx
	call	_ZNSaIcED1Ev
	addq	$32, %rsi
	subq	$1, %rbx
	leaq	-4(%rbp), %rax
	movq	%rax, %rcx
	call	_ZNSaIcEC1Ev
	leaq	-4(%rbp), %rax
	movq	%rax, %r8
	leaq	.LC116(%rip), %rdx
	movq	%rsi, %rcx
.LEHB146:
	call	_ZNSt7__cxx1112basic_stringIcSt11char_traitsIcESaIcEEC1EPKcRKS3_
.LEHE146:
	leaq	-4(%rbp), %rax
	movq	%rax, %rcx
	call	_ZNSaIcED1Ev
	addq	$32, %rsi
	subq	$1, %rbx
	leaq	-3(%rbp), %rax
	movq	%rax, %rcx
	call	_ZNSaIcEC1Ev
	leaq	-3(%rbp), %rax
	movq	%rax, %r8
	leaq	.LC117(%rip), %rdx
	movq	%rsi, %rcx
.LEHB147:
	call	_ZNSt7__cxx1112basic_stringIcSt11char_traitsIcESaIcEEC1EPKcRKS3_
.LEHE147:
	leaq	-3(%rbp), %rax
	movq	%rax, %rcx
	call	_ZNSaIcED1Ev
	addq	$32, %rsi
	subq	$1, %rbx
	leaq	-2(%rbp), %rax
	movq	%rax, %rcx
	call	_ZNSaIcEC1Ev
	leaq	-2(%rbp), %rax
	movq	%rax, %r8
	leaq	.LC118(%rip), %rdx
	movq	%rsi, %rcx
.LEHB148:
	call	_ZNSt7__cxx1112basic_stringIcSt11char_traitsIcESaIcEEC1EPKcRKS3_
.LEHE148:
	leaq	-2(%rbp), %rax
	movq	%rax, %rcx
	call	_ZNSaIcED1Ev
	addq	$32, %rsi
	subq	$1, %rbx
	leaq	-1(%rbp), %rax
	movq	%rax, %rcx
	call	_ZNSaIcEC1Ev
	leaq	-1(%rbp), %rax
	movq	%rax, %r8
	leaq	.LC119(%rip), %rdx
	movq	%rsi, %rcx
.LEHB149:
	call	_ZNSt7__cxx1112basic_stringIcSt11char_traitsIcESaIcEEC1EPKcRKS3_
.LEHE149:
	leaq	-1(%rbp), %rax
	movq	%rax, %rcx
	call	_ZNSaIcED1Ev
	addq	$32, %rsi
	subq	$1, %rbx
	movq	%rbp, %rax
	movq	%rax, %rcx
	call	_ZNSaIcEC1Ev
	movq	%rbp, %rax
	movq	%rax, %r8
	leaq	.LC120(%rip), %rdx
	movq	%rsi, %rcx
.LEHB150:
	call	_ZNSt7__cxx1112basic_stringIcSt11char_traitsIcESaIcEEC1EPKcRKS3_
.LEHE150:
	movq	%rbp, %rax
	movq	%rax, %rcx
	call	_ZNSaIcED1Ev
	addq	$32, %rsi
	subq	$1, %rbx
	leaq	1(%rbp), %rax
	movq	%rax, %rcx
	call	_ZNSaIcEC1Ev
	leaq	1(%rbp), %rax
	movq	%rax, %r8
	leaq	.LC79(%rip), %rdx
	movq	%rsi, %rcx
.LEHB151:
	call	_ZNSt7__cxx1112basic_stringIcSt11char_traitsIcESaIcEEC1EPKcRKS3_
.LEHE151:
	leaq	1(%rbp), %rax
	movq	%rax, %rcx
	call	_ZNSaIcED1Ev
	addq	$32, %rsi
	subq	$1, %rbx
	leaq	2(%rbp), %rax
	movq	%rax, %rcx
	call	_ZNSaIcEC1Ev
	leaq	2(%rbp), %rax
	movq	%rax, %r8
	leaq	.LC80(%rip), %rdx
	movq	%rsi, %rcx
.LEHB152:
	call	_ZNSt7__cxx1112basic_stringIcSt11char_traitsIcESaIcEEC1EPKcRKS3_
.LEHE152:
	leaq	2(%rbp), %rax
	movq	%rax, %rcx
	call	_ZNSaIcED1Ev
	addq	$32, %rsi
	subq	$1, %rbx
	leaq	3(%rbp), %rax
	movq	%rax, %rcx
	call	_ZNSaIcEC1Ev
	leaq	3(%rbp), %rax
	movq	%rax, %r8
	leaq	.LC73(%rip), %rdx
	movq	%rsi, %rcx
.LEHB153:
	call	_ZNSt7__cxx1112basic_stringIcSt11char_traitsIcESaIcEEC1EPKcRKS3_
.LEHE153:
	leaq	3(%rbp), %rax
	movq	%rax, %rcx
	call	_ZNSaIcED1Ev
	addq	$32, %rsi
	subq	$1, %rbx
	leaq	4(%rbp), %rax
	movq	%rax, %rcx
	call	_ZNSaIcEC1Ev
	leaq	4(%rbp), %rax
	movq	%rax, %r8
	leaq	.LC121(%rip), %rdx
	movq	%rsi, %rcx
.LEHB154:
	call	_ZNSt7__cxx1112basic_stringIcSt11char_traitsIcESaIcEEC1EPKcRKS3_
.LEHE154:
	leaq	4(%rbp), %rax
	movq	%rax, %rcx
	call	_ZNSaIcED1Ev
	addq	$32, %rsi
	subq	$1, %rbx
	leaq	5(%rbp), %rax
	movq	%rax, %rcx
	call	_ZNSaIcEC1Ev
	leaq	5(%rbp), %rax
	movq	%rax, %r8
	leaq	.LC122(%rip), %rdx
	movq	%rsi, %rcx
.LEHB155:
	call	_ZNSt7__cxx1112basic_stringIcSt11char_traitsIcESaIcEEC1EPKcRKS3_
.LEHE155:
	leaq	5(%rbp), %rax
	movq	%rax, %rcx
	call	_ZNSaIcED1Ev
	addq	$32, %rsi
	subq	$1, %rbx
	leaq	6(%rbp), %rax
	movq	%rax, %rcx
	call	_ZNSaIcEC1Ev
	leaq	6(%rbp), %rax
	movq	%rax, %r8
	leaq	.LC123(%rip), %rdx
	movq	%rsi, %rcx
.LEHB156:
	call	_ZNSt7__cxx1112basic_stringIcSt11char_traitsIcESaIcEEC1EPKcRKS3_
.LEHE156:
	leaq	6(%rbp), %rax
	movq	%rax, %rcx
	call	_ZNSaIcED1Ev
	addq	$32, %rsi
	subq	$1, %rbx
	leaq	7(%rbp), %rax
	movq	%rax, %rcx
	call	_ZNSaIcEC1Ev
	leaq	7(%rbp), %rax
	movq	%rax, %r8
	leaq	.LC124(%rip), %rdx
	movq	%rsi, %rcx
.LEHB157:
	call	_ZNSt7__cxx1112basic_stringIcSt11char_traitsIcESaIcEEC1EPKcRKS3_
.LEHE157:
	leaq	7(%rbp), %rax
	movq	%rax, %rcx
	call	_ZNSaIcED1Ev
	addq	$32, %rsi
	subq	$1, %rbx
	leaq	8(%rbp), %rax
	movq	%rax, %rcx
	call	_ZNSaIcEC1Ev
	leaq	8(%rbp), %rax
	movq	%rax, %r8
	leaq	.LC125(%rip), %rdx
	movq	%rsi, %rcx
.LEHB158:
	call	_ZNSt7__cxx1112basic_stringIcSt11char_traitsIcESaIcEEC1EPKcRKS3_
.LEHE158:
	leaq	8(%rbp), %rax
	movq	%rax, %rcx
	call	_ZNSaIcED1Ev
	addq	$32, %rsi
	subq	$1, %rbx
	leaq	9(%rbp), %rax
	movq	%rax, %rcx
	call	_ZNSaIcEC1Ev
	leaq	9(%rbp), %rax
	movq	%rax, %r8
	leaq	.LC126(%rip), %rdx
	movq	%rsi, %rcx
.LEHB159:
	call	_ZNSt7__cxx1112basic_stringIcSt11char_traitsIcESaIcEEC1EPKcRKS3_
.LEHE159:
	leaq	9(%rbp), %rax
	movq	%rax, %rcx
	call	_ZNSaIcED1Ev
	addq	$32, %rsi
	subq	$1, %rbx
	leaq	10(%rbp), %rax
	movq	%rax, %rcx
	call	_ZNSaIcEC1Ev
	leaq	10(%rbp), %rax
	movq	%rax, %r8
	leaq	.LC90(%rip), %rdx
	movq	%rsi, %rcx
.LEHB160:
	call	_ZNSt7__cxx1112basic_stringIcSt11char_traitsIcESaIcEEC1EPKcRKS3_
.LEHE160:
	leaq	10(%rbp), %rax
	movq	%rax, %rcx
	call	_ZNSaIcED1Ev
	addq	$32, %rsi
	subq	$1, %rbx
	leaq	11(%rbp), %rax
	movq	%rax, %rcx
	call	_ZNSaIcEC1Ev
	leaq	11(%rbp), %rax
	movq	%rax, %r8
	leaq	.LC127(%rip), %rdx
	movq	%rsi, %rcx
.LEHB161:
	call	_ZNSt7__cxx1112basic_stringIcSt11char_traitsIcESaIcEEC1EPKcRKS3_
.LEHE161:
	leaq	11(%rbp), %rax
	movq	%rax, %rcx
	call	_ZNSaIcED1Ev
	addq	$32, %rsi
	subq	$1, %rbx
	leaq	12(%rbp), %rax
	movq	%rax, %rcx
	call	_ZNSaIcEC1Ev
	leaq	12(%rbp), %rax
	movq	%rax, %r8
	leaq	.LC128(%rip), %rdx
	movq	%rsi, %rcx
.LEHB162:
	call	_ZNSt7__cxx1112basic_stringIcSt11char_traitsIcESaIcEEC1EPKcRKS3_
.LEHE162:
	leaq	12(%rbp), %rax
	movq	%rax, %rcx
	call	_ZNSaIcED1Ev
	addq	$32, %rsi
	subq	$1, %rbx
	leaq	13(%rbp), %rax
	movq	%rax, %rcx
	call	_ZNSaIcEC1Ev
	leaq	13(%rbp), %rax
	movq	%rax, %r8
	leaq	.LC92(%rip), %rdx
	movq	%rsi, %rcx
.LEHB163:
	call	_ZNSt7__cxx1112basic_stringIcSt11char_traitsIcESaIcEEC1EPKcRKS3_
.LEHE163:
	leaq	13(%rbp), %rax
	movq	%rax, %rcx
	call	_ZNSaIcED1Ev
	addq	$32, %rsi
	subq	$1, %rbx
	leaq	14(%rbp), %rax
	movq	%rax, %rcx
	call	_ZNSaIcEC1Ev
	leaq	14(%rbp), %rax
	movq	%rax, %r8
	leaq	.LC129(%rip), %rdx
	movq	%rsi, %rcx
.LEHB164:
	call	_ZNSt7__cxx1112basic_stringIcSt11char_traitsIcESaIcEEC1EPKcRKS3_
.LEHE164:
	leaq	14(%rbp), %rax
	movq	%rax, %rcx
	call	_ZNSaIcED1Ev
	addq	$32, %rsi
	subq	$1, %rbx
	leaq	15(%rbp), %rax
	movq	%rax, %rcx
	call	_ZNSaIcEC1Ev
	leaq	15(%rbp), %rax
	movq	%rax, %r8
	leaq	.LC130(%rip), %rdx
	movq	%rsi, %rcx
.LEHB165:
	call	_ZNSt7__cxx1112basic_stringIcSt11char_traitsIcESaIcEEC1EPKcRKS3_
.LEHE165:
	leaq	15(%rbp), %rax
	movq	%rax, %rcx
	call	_ZNSaIcED1Ev
	addq	$32, %rsi
	subq	$1, %rbx
	leaq	16(%rbp), %rax
	movq	%rax, %rcx
	call	_ZNSaIcEC1Ev
	leaq	16(%rbp), %rax
	movq	%rax, %r8
	leaq	.LC131(%rip), %rdx
	movq	%rsi, %rcx
.LEHB166:
	call	_ZNSt7__cxx1112basic_stringIcSt11char_traitsIcESaIcEEC1EPKcRKS3_
.LEHE166:
	leaq	16(%rbp), %rax
	movq	%rax, %rcx
	call	_ZNSaIcED1Ev
	addq	$32, %rsi
	subq	$1, %rbx
	leaq	17(%rbp), %rax
	movq	%rax, %rcx
	call	_ZNSaIcEC1Ev
	leaq	17(%rbp), %rax
	movq	%rax, %r8
	leaq	.LC132(%rip), %rdx
	movq	%rsi, %rcx
.LEHB167:
	call	_ZNSt7__cxx1112basic_stringIcSt11char_traitsIcESaIcEEC1EPKcRKS3_
.LEHE167:
	leaq	17(%rbp), %rax
	movq	%rax, %rcx
	call	_ZNSaIcED1Ev
	addq	$32, %rsi
	subq	$1, %rbx
	leaq	18(%rbp), %rax
	movq	%rax, %rcx
	call	_ZNSaIcEC1Ev
	leaq	18(%rbp), %rax
	movq	%rax, %r8
	leaq	.LC133(%rip), %rdx
	movq	%rsi, %rcx
.LEHB168:
	call	_ZNSt7__cxx1112basic_stringIcSt11char_traitsIcESaIcEEC1EPKcRKS3_
.LEHE168:
	leaq	18(%rbp), %rax
	movq	%rax, %rcx
	call	_ZNSaIcED1Ev
	addq	$32, %rsi
	subq	$1, %rbx
	leaq	19(%rbp), %rax
	movq	%rax, %rcx
	call	_ZNSaIcEC1Ev
	leaq	19(%rbp), %rax
	movq	%rax, %r8
	leaq	.LC134(%rip), %rdx
	movq	%rsi, %rcx
.LEHB169:
	call	_ZNSt7__cxx1112basic_stringIcSt11char_traitsIcESaIcEEC1EPKcRKS3_
.LEHE169:
	leaq	19(%rbp), %rax
	movq	%rax, %rcx
	call	_ZNSaIcED1Ev
	addq	$32, %rsi
	subq	$1, %rbx
	leaq	20(%rbp), %rax
	movq	%rax, %rcx
	call	_ZNSaIcEC1Ev
	leaq	20(%rbp), %rax
	movq	%rax, %r8
	leaq	.LC135(%rip), %rdx
	movq	%rsi, %rcx
.LEHB170:
	call	_ZNSt7__cxx1112basic_stringIcSt11char_traitsIcESaIcEEC1EPKcRKS3_
.LEHE170:
	leaq	20(%rbp), %rax
	movq	%rax, %rcx
	call	_ZNSaIcED1Ev
	addq	$32, %rsi
	subq	$1, %rbx
	leaq	21(%rbp), %rax
	movq	%rax, %rcx
	call	_ZNSaIcEC1Ev
	leaq	21(%rbp), %rax
	movq	%rax, %r8
	leaq	.LC136(%rip), %rdx
	movq	%rsi, %rcx
.LEHB171:
	call	_ZNSt7__cxx1112basic_stringIcSt11char_traitsIcESaIcEEC1EPKcRKS3_
.LEHE171:
	leaq	21(%rbp), %rax
	movq	%rax, %rcx
	call	_ZNSaIcED1Ev
	addq	$32, %rsi
	subq	$1, %rbx
	leaq	22(%rbp), %rax
	movq	%rax, %rcx
	call	_ZNSaIcEC1Ev
	leaq	22(%rbp), %rax
	movq	%rax, %r8
	leaq	.LC137(%rip), %rdx
	movq	%rsi, %rcx
.LEHB172:
	call	_ZNSt7__cxx1112basic_stringIcSt11char_traitsIcESaIcEEC1EPKcRKS3_
.LEHE172:
	leaq	22(%rbp), %rax
	movq	%rax, %rcx
	call	_ZNSaIcED1Ev
	addq	$32, %rsi
	subq	$1, %rbx
	leaq	23(%rbp), %rax
	movq	%rax, %rcx
	call	_ZNSaIcEC1Ev
	leaq	23(%rbp), %rax
	movq	%rax, %r8
	leaq	.LC138(%rip), %rdx
	movq	%rsi, %rcx
.LEHB173:
	call	_ZNSt7__cxx1112basic_stringIcSt11char_traitsIcESaIcEEC1EPKcRKS3_
.LEHE173:
	leaq	23(%rbp), %rax
	movq	%rax, %rcx
	call	_ZNSaIcED1Ev
	addq	$32, %rsi
	subq	$1, %rbx
	leaq	24(%rbp), %rax
	movq	%rax, %rcx
	call	_ZNSaIcEC1Ev
	leaq	24(%rbp), %rax
	movq	%rax, %r8
	leaq	.LC127(%rip), %rdx
	movq	%rsi, %rcx
.LEHB174:
	call	_ZNSt7__cxx1112basic_stringIcSt11char_traitsIcESaIcEEC1EPKcRKS3_
.LEHE174:
	leaq	24(%rbp), %rax
	movq	%rax, %rcx
	call	_ZNSaIcED1Ev
	addq	$32, %rsi
	subq	$1, %rbx
	leaq	25(%rbp), %rax
	movq	%rax, %rcx
	call	_ZNSaIcEC1Ev
	leaq	25(%rbp), %rax
	movq	%rax, %r8
	leaq	.LC42(%rip), %rdx
	movq	%rsi, %rcx
.LEHB175:
	call	_ZNSt7__cxx1112basic_stringIcSt11char_traitsIcESaIcEEC1EPKcRKS3_
.LEHE175:
	leaq	25(%rbp), %rax
	movq	%rax, %rcx
	call	_ZNSaIcED1Ev
	addq	$32, %rsi
	subq	$1, %rbx
	leaq	26(%rbp), %rax
	movq	%rax, %rcx
	call	_ZNSaIcEC1Ev
	leaq	26(%rbp), %rax
	movq	%rax, %r8
	leaq	.LC118(%rip), %rdx
	movq	%rsi, %rcx
.LEHB176:
	call	_ZNSt7__cxx1112basic_stringIcSt11char_traitsIcESaIcEEC1EPKcRKS3_
.LEHE176:
	leaq	26(%rbp), %rax
	movq	%rax, %rcx
	call	_ZNSaIcED1Ev
	addq	$32, %rsi
	subq	$1, %rbx
	leaq	27(%rbp), %rax
	movq	%rax, %rcx
	call	_ZNSaIcEC1Ev
	leaq	27(%rbp), %rax
	movq	%rax, %r8
	leaq	.LC44(%rip), %rdx
	movq	%rsi, %rcx
.LEHB177:
	call	_ZNSt7__cxx1112basic_stringIcSt11char_traitsIcESaIcEEC1EPKcRKS3_
.LEHE177:
	leaq	27(%rbp), %rax
	movq	%rax, %rcx
	call	_ZNSaIcED1Ev
	addq	$32, %rsi
	subq	$1, %rbx
	leaq	28(%rbp), %rax
	movq	%rax, %rcx
	call	_ZNSaIcEC1Ev
	leaq	28(%rbp), %rax
	movq	%rax, %r8
	leaq	.LC139(%rip), %rdx
	movq	%rsi, %rcx
.LEHB178:
	call	_ZNSt7__cxx1112basic_stringIcSt11char_traitsIcESaIcEEC1EPKcRKS3_
.LEHE178:
	leaq	28(%rbp), %rax
	movq	%rax, %rcx
	call	_ZNSaIcED1Ev
	addq	$32, %rsi
	subq	$1, %rbx
	leaq	29(%rbp), %rax
	movq	%rax, %rcx
	call	_ZNSaIcEC1Ev
	leaq	29(%rbp), %rax
	movq	%rax, %r8
	leaq	.LC140(%rip), %rdx
	movq	%rsi, %rcx
.LEHB179:
	call	_ZNSt7__cxx1112basic_stringIcSt11char_traitsIcESaIcEEC1EPKcRKS3_
.LEHE179:
	leaq	29(%rbp), %rax
	movq	%rax, %rcx
	call	_ZNSaIcED1Ev
	addq	$32, %rsi
	subq	$1, %rbx
	leaq	30(%rbp), %rax
	movq	%rax, %rcx
	call	_ZNSaIcEC1Ev
	leaq	30(%rbp), %rax
	movq	%rax, %r8
	leaq	.LC75(%rip), %rdx
	movq	%rsi, %rcx
.LEHB180:
	call	_ZNSt7__cxx1112basic_stringIcSt11char_traitsIcESaIcEEC1EPKcRKS3_
.LEHE180:
	leaq	30(%rbp), %rax
	movq	%rax, %rcx
	call	_ZNSaIcED1Ev
	addq	$32, %rsi
	subq	$1, %rbx
	leaq	31(%rbp), %rax
	movq	%rax, %rcx
	call	_ZNSaIcEC1Ev
	leaq	31(%rbp), %rax
	movq	%rax, %r8
	leaq	.LC141(%rip), %rdx
	movq	%rsi, %rcx
.LEHB181:
	call	_ZNSt7__cxx1112basic_stringIcSt11char_traitsIcESaIcEEC1EPKcRKS3_
.LEHE181:
	leaq	31(%rbp), %rax
	movq	%rax, %rcx
	call	_ZNSaIcED1Ev
	addq	$32, %rsi
	subq	$1, %rbx
	leaq	32(%rbp), %rax
	movq	%rax, %rcx
	call	_ZNSaIcEC1Ev
	leaq	32(%rbp), %rax
	movq	%rax, %r8
	leaq	.LC142(%rip), %rdx
	movq	%rsi, %rcx
.LEHB182:
	call	_ZNSt7__cxx1112basic_stringIcSt11char_traitsIcESaIcEEC1EPKcRKS3_
.LEHE182:
	leaq	32(%rbp), %rax
	movq	%rax, %rcx
	call	_ZNSaIcED1Ev
	addq	$32, %rsi
	subq	$1, %rbx
	leaq	33(%rbp), %rax
	movq	%rax, %rcx
	call	_ZNSaIcEC1Ev
	leaq	33(%rbp), %rax
	movq	%rax, %r8
	leaq	.LC44(%rip), %rdx
	movq	%rsi, %rcx
.LEHB183:
	call	_ZNSt7__cxx1112basic_stringIcSt11char_traitsIcESaIcEEC1EPKcRKS3_
.LEHE183:
	leaq	33(%rbp), %rax
	movq	%rax, %rcx
	call	_ZNSaIcED1Ev
	addq	$32, %rsi
	subq	$1, %rbx
	leaq	34(%rbp), %rax
	movq	%rax, %rcx
	call	_ZNSaIcEC1Ev
	leaq	34(%rbp), %rax
	movq	%rax, %r8
	leaq	.LC143(%rip), %rdx
	movq	%rsi, %rcx
.LEHB184:
	call	_ZNSt7__cxx1112basic_stringIcSt11char_traitsIcESaIcEEC1EPKcRKS3_
.LEHE184:
	leaq	34(%rbp), %rax
	movq	%rax, %rcx
	call	_ZNSaIcED1Ev
	addq	$32, %rsi
	subq	$1, %rbx
	leaq	35(%rbp), %rax
	movq	%rax, %rcx
	call	_ZNSaIcEC1Ev
	leaq	35(%rbp), %rax
	movq	%rax, %r8
	leaq	.LC144(%rip), %rdx
	movq	%rsi, %rcx
.LEHB185:
	call	_ZNSt7__cxx1112basic_stringIcSt11char_traitsIcESaIcEEC1EPKcRKS3_
.LEHE185:
	leaq	35(%rbp), %rax
	movq	%rax, %rcx
	call	_ZNSaIcED1Ev
	addq	$32, %rsi
	subq	$1, %rbx
	leaq	36(%rbp), %rax
	movq	%rax, %rcx
	call	_ZNSaIcEC1Ev
	leaq	36(%rbp), %rax
	movq	%rax, %r8
	leaq	.LC145(%rip), %rdx
	movq	%rsi, %rcx
.LEHB186:
	call	_ZNSt7__cxx1112basic_stringIcSt11char_traitsIcESaIcEEC1EPKcRKS3_
.LEHE186:
	leaq	36(%rbp), %rax
	movq	%rax, %rcx
	call	_ZNSaIcED1Ev
	addq	$32, %rsi
	subq	$1, %rbx
	leaq	37(%rbp), %rax
	movq	%rax, %rcx
	call	_ZNSaIcEC1Ev
	leaq	37(%rbp), %rax
	movq	%rax, %r8
	leaq	.LC62(%rip), %rdx
	movq	%rsi, %rcx
.LEHB187:
	call	_ZNSt7__cxx1112basic_stringIcSt11char_traitsIcESaIcEEC1EPKcRKS3_
.LEHE187:
	leaq	37(%rbp), %rax
	movq	%rax, %rcx
	call	_ZNSaIcED1Ev
	addq	$32, %rsi
	subq	$1, %rbx
	leaq	38(%rbp), %rax
	movq	%rax, %rcx
	call	_ZNSaIcEC1Ev
	leaq	38(%rbp), %rax
	movq	%rax, %r8
	leaq	.LC146(%rip), %rdx
	movq	%rsi, %rcx
.LEHB188:
	call	_ZNSt7__cxx1112basic_stringIcSt11char_traitsIcESaIcEEC1EPKcRKS3_
.LEHE188:
	leaq	38(%rbp), %rax
	movq	%rax, %rcx
	call	_ZNSaIcED1Ev
	addq	$32, %rsi
	subq	$1, %rbx
	leaq	39(%rbp), %rax
	movq	%rax, %rcx
	call	_ZNSaIcEC1Ev
	leaq	39(%rbp), %rax
	movq	%rax, %r8
	leaq	.LC147(%rip), %rdx
	movq	%rsi, %rcx
.LEHB189:
	call	_ZNSt7__cxx1112basic_stringIcSt11char_traitsIcESaIcEEC1EPKcRKS3_
.LEHE189:
	leaq	39(%rbp), %rax
	movq	%rax, %rcx
	call	_ZNSaIcED1Ev
	addq	$32, %rsi
	subq	$1, %rbx
	leaq	40(%rbp), %rax
	movq	%rax, %rcx
	call	_ZNSaIcEC1Ev
	leaq	40(%rbp), %rax
	movq	%rax, %r8
	leaq	.LC148(%rip), %rdx
	movq	%rsi, %rcx
.LEHB190:
	call	_ZNSt7__cxx1112basic_stringIcSt11char_traitsIcESaIcEEC1EPKcRKS3_
.LEHE190:
	leaq	40(%rbp), %rax
	movq	%rax, %rcx
	call	_ZNSaIcED1Ev
	addq	$32, %rsi
	subq	$1, %rbx
	leaq	41(%rbp), %rax
	movq	%rax, %rcx
	call	_ZNSaIcEC1Ev
	leaq	41(%rbp), %rax
	movq	%rax, %r8
	leaq	.LC149(%rip), %rdx
	movq	%rsi, %rcx
.LEHB191:
	call	_ZNSt7__cxx1112basic_stringIcSt11char_traitsIcESaIcEEC1EPKcRKS3_
.LEHE191:
	leaq	41(%rbp), %rax
	movq	%rax, %rcx
	call	_ZNSaIcED1Ev
	addq	$32, %rsi
	subq	$1, %rbx
	leaq	42(%rbp), %rax
	movq	%rax, %rcx
	call	_ZNSaIcEC1Ev
	leaq	42(%rbp), %rax
	movq	%rax, %r8
	leaq	.LC150(%rip), %rdx
	movq	%rsi, %rcx
.LEHB192:
	call	_ZNSt7__cxx1112basic_stringIcSt11char_traitsIcESaIcEEC1EPKcRKS3_
.LEHE192:
	leaq	42(%rbp), %rax
	movq	%rax, %rcx
	call	_ZNSaIcED1Ev
	addq	$32, %rsi
	subq	$1, %rbx
	leaq	43(%rbp), %rax
	movq	%rax, %rcx
	call	_ZNSaIcEC1Ev
	leaq	43(%rbp), %rax
	movq	%rax, %r8
	leaq	.LC151(%rip), %rdx
	movq	%rsi, %rcx
.LEHB193:
	call	_ZNSt7__cxx1112basic_stringIcSt11char_traitsIcESaIcEEC1EPKcRKS3_
.LEHE193:
	leaq	43(%rbp), %rax
	movq	%rax, %rcx
	call	_ZNSaIcED1Ev
	addq	$32, %rsi
	subq	$1, %rbx
	leaq	44(%rbp), %rax
	movq	%rax, %rcx
	call	_ZNSaIcEC1Ev
	leaq	44(%rbp), %rax
	movq	%rax, %r8
	leaq	.LC152(%rip), %rdx
	movq	%rsi, %rcx
.LEHB194:
	call	_ZNSt7__cxx1112basic_stringIcSt11char_traitsIcESaIcEEC1EPKcRKS3_
.LEHE194:
	leaq	44(%rbp), %rax
	movq	%rax, %rcx
	call	_ZNSaIcED1Ev
	addq	$32, %rsi
	subq	$1, %rbx
	leaq	45(%rbp), %rax
	movq	%rax, %rcx
	call	_ZNSaIcEC1Ev
	leaq	45(%rbp), %rax
	movq	%rax, %r8
	leaq	.LC124(%rip), %rdx
	movq	%rsi, %rcx
.LEHB195:
	call	_ZNSt7__cxx1112basic_stringIcSt11char_traitsIcESaIcEEC1EPKcRKS3_
.LEHE195:
	leaq	45(%rbp), %rax
	movq	%rax, %rcx
	call	_ZNSaIcED1Ev
	addq	$32, %rsi
	subq	$1, %rbx
	leaq	46(%rbp), %rax
	movq	%rax, %rcx
	call	_ZNSaIcEC1Ev
	leaq	46(%rbp), %rax
	movq	%rax, %r8
	leaq	.LC153(%rip), %rdx
	movq	%rsi, %rcx
.LEHB196:
	call	_ZNSt7__cxx1112basic_stringIcSt11char_traitsIcESaIcEEC1EPKcRKS3_
.LEHE196:
	leaq	46(%rbp), %rax
	movq	%rax, %rcx
	call	_ZNSaIcED1Ev
	addq	$32, %rsi
	subq	$1, %rbx
	leaq	47(%rbp), %rax
	movq	%rax, %rcx
	call	_ZNSaIcEC1Ev
	leaq	47(%rbp), %rax
	movq	%rax, %r8
	leaq	.LC154(%rip), %rdx
	movq	%rsi, %rcx
.LEHB197:
	call	_ZNSt7__cxx1112basic_stringIcSt11char_traitsIcESaIcEEC1EPKcRKS3_
.LEHE197:
	leaq	47(%rbp), %rax
	movq	%rax, %rcx
	call	_ZNSaIcED1Ev
	addq	$32, %rsi
	subq	$1, %rbx
	leaq	48(%rbp), %rax
	movq	%rax, %rcx
	call	_ZNSaIcEC1Ev
	leaq	48(%rbp), %rax
	movq	%rax, %r8
	leaq	.LC155(%rip), %rdx
	movq	%rsi, %rcx
.LEHB198:
	call	_ZNSt7__cxx1112basic_stringIcSt11char_traitsIcESaIcEEC1EPKcRKS3_
.LEHE198:
	leaq	48(%rbp), %rax
	movq	%rax, %rcx
	call	_ZNSaIcED1Ev
	addq	$32, %rsi
	subq	$1, %rbx
	leaq	49(%rbp), %rax
	movq	%rax, %rcx
	call	_ZNSaIcEC1Ev
	leaq	49(%rbp), %rax
	movq	%rax, %r8
	leaq	.LC156(%rip), %rdx
	movq	%rsi, %rcx
.LEHB199:
	call	_ZNSt7__cxx1112basic_stringIcSt11char_traitsIcESaIcEEC1EPKcRKS3_
.LEHE199:
	leaq	49(%rbp), %rax
	movq	%rax, %rcx
	call	_ZNSaIcED1Ev
	addq	$32, %rsi
	subq	$1, %rbx
	leaq	50(%rbp), %rax
	movq	%rax, %rcx
	call	_ZNSaIcEC1Ev
	leaq	50(%rbp), %rax
	movq	%rax, %r8
	leaq	.LC157(%rip), %rdx
	movq	%rsi, %rcx
.LEHB200:
	call	_ZNSt7__cxx1112basic_stringIcSt11char_traitsIcESaIcEEC1EPKcRKS3_
.LEHE200:
	leaq	50(%rbp), %rax
	movq	%rax, %rcx
	call	_ZNSaIcED1Ev
	addq	$32, %rsi
	subq	$1, %rbx
	leaq	51(%rbp), %rax
	movq	%rax, %rcx
	call	_ZNSaIcEC1Ev
	leaq	51(%rbp), %rax
	movq	%rax, %r8
	leaq	.LC158(%rip), %rdx
	movq	%rsi, %rcx
.LEHB201:
	call	_ZNSt7__cxx1112basic_stringIcSt11char_traitsIcESaIcEEC1EPKcRKS3_
.LEHE201:
	leaq	51(%rbp), %rax
	movq	%rax, %rcx
	call	_ZNSaIcED1Ev
	addq	$32, %rsi
	subq	$1, %rbx
	leaq	52(%rbp), %rax
	movq	%rax, %rcx
	call	_ZNSaIcEC1Ev
	leaq	52(%rbp), %rax
	movq	%rax, %r8
	leaq	.LC159(%rip), %rdx
	movq	%rsi, %rcx
.LEHB202:
	call	_ZNSt7__cxx1112basic_stringIcSt11char_traitsIcESaIcEEC1EPKcRKS3_
.LEHE202:
	leaq	52(%rbp), %rax
	movq	%rax, %rcx
	call	_ZNSaIcED1Ev
	addq	$32, %rsi
	subq	$1, %rbx
	leaq	53(%rbp), %rax
	movq	%rax, %rcx
	call	_ZNSaIcEC1Ev
	leaq	53(%rbp), %rax
	movq	%rax, %r8
	leaq	.LC160(%rip), %rdx
	movq	%rsi, %rcx
.LEHB203:
	call	_ZNSt7__cxx1112basic_stringIcSt11char_traitsIcESaIcEEC1EPKcRKS3_
.LEHE203:
	leaq	53(%rbp), %rax
	movq	%rax, %rcx
	call	_ZNSaIcED1Ev
	addq	$32, %rsi
	subq	$1, %rbx
	leaq	54(%rbp), %rax
	movq	%rax, %rcx
	call	_ZNSaIcEC1Ev
	leaq	54(%rbp), %rax
	movq	%rax, %r8
	leaq	.LC161(%rip), %rdx
	movq	%rsi, %rcx
.LEHB204:
	call	_ZNSt7__cxx1112basic_stringIcSt11char_traitsIcESaIcEEC1EPKcRKS3_
.LEHE204:
	leaq	54(%rbp), %rax
	movq	%rax, %rcx
	call	_ZNSaIcED1Ev
	addq	$32, %rsi
	subq	$1, %rbx
	leaq	55(%rbp), %rax
	movq	%rax, %rcx
	call	_ZNSaIcEC1Ev
	leaq	55(%rbp), %rax
	movq	%rax, %r8
	leaq	.LC162(%rip), %rdx
	movq	%rsi, %rcx
.LEHB205:
	call	_ZNSt7__cxx1112basic_stringIcSt11char_traitsIcESaIcEEC1EPKcRKS3_
.LEHE205:
	leaq	55(%rbp), %rax
	movq	%rax, %rcx
	call	_ZNSaIcED1Ev
	addq	$32, %rsi
	subq	$1, %rbx
	leaq	56(%rbp), %rax
	movq	%rax, %rcx
	call	_ZNSaIcEC1Ev
	leaq	56(%rbp), %rax
	movq	%rax, %r8
	leaq	.LC44(%rip), %rdx
	movq	%rsi, %rcx
.LEHB206:
	call	_ZNSt7__cxx1112basic_stringIcSt11char_traitsIcESaIcEEC1EPKcRKS3_
.LEHE206:
	leaq	56(%rbp), %rax
	movq	%rax, %rcx
	call	_ZNSaIcED1Ev
	addq	$32, %rsi
	subq	$1, %rbx
	leaq	57(%rbp), %rax
	movq	%rax, %rcx
	call	_ZNSaIcEC1Ev
	leaq	57(%rbp), %rax
	movq	%rax, %r8
	leaq	.LC163(%rip), %rdx
	movq	%rsi, %rcx
.LEHB207:
	call	_ZNSt7__cxx1112basic_stringIcSt11char_traitsIcESaIcEEC1EPKcRKS3_
.LEHE207:
	leaq	57(%rbp), %rax
	movq	%rax, %rcx
	call	_ZNSaIcED1Ev
	addq	$32, %rsi
	subq	$1, %rbx
	leaq	58(%rbp), %rax
	movq	%rax, %rcx
	call	_ZNSaIcEC1Ev
	leaq	58(%rbp), %rax
	movq	%rax, %r8
	leaq	.LC164(%rip), %rdx
	movq	%rsi, %rcx
.LEHB208:
	call	_ZNSt7__cxx1112basic_stringIcSt11char_traitsIcESaIcEEC1EPKcRKS3_
.LEHE208:
	leaq	58(%rbp), %rax
	movq	%rax, %rcx
	call	_ZNSaIcED1Ev
	addq	$32, %rsi
	subq	$1, %rbx
	leaq	59(%rbp), %rax
	movq	%rax, %rcx
	call	_ZNSaIcEC1Ev
	leaq	59(%rbp), %rax
	movq	%rax, %r8
	leaq	.LC97(%rip), %rdx
	movq	%rsi, %rcx
.LEHB209:
	call	_ZNSt7__cxx1112basic_stringIcSt11char_traitsIcESaIcEEC1EPKcRKS3_
.LEHE209:
	leaq	59(%rbp), %rax
	movq	%rax, %rcx
	call	_ZNSaIcED1Ev
	addq	$32, %rsi
	subq	$1, %rbx
	leaq	60(%rbp), %rax
	movq	%rax, %rcx
	call	_ZNSaIcEC1Ev
	leaq	60(%rbp), %rax
	movq	%rax, %r8
	leaq	.LC165(%rip), %rdx
	movq	%rsi, %rcx
.LEHB210:
	call	_ZNSt7__cxx1112basic_stringIcSt11char_traitsIcESaIcEEC1EPKcRKS3_
.LEHE210:
	leaq	60(%rbp), %rax
	movq	%rax, %rcx
	call	_ZNSaIcED1Ev
	addq	$32, %rsi
	subq	$1, %rbx
	leaq	61(%rbp), %rax
	movq	%rax, %rcx
	call	_ZNSaIcEC1Ev
	leaq	61(%rbp), %rax
	movq	%rax, %r8
	leaq	.LC166(%rip), %rdx
	movq	%rsi, %rcx
.LEHB211:
	call	_ZNSt7__cxx1112basic_stringIcSt11char_traitsIcESaIcEEC1EPKcRKS3_
.LEHE211:
	leaq	61(%rbp), %rax
	movq	%rax, %rcx
	call	_ZNSaIcED1Ev
	addq	$32, %rsi
	subq	$1, %rbx
	leaq	62(%rbp), %rax
	movq	%rax, %rcx
	call	_ZNSaIcEC1Ev
	leaq	62(%rbp), %rax
	movq	%rax, %r8
	leaq	.LC47(%rip), %rdx
	movq	%rsi, %rcx
.LEHB212:
	call	_ZNSt7__cxx1112basic_stringIcSt11char_traitsIcESaIcEEC1EPKcRKS3_
.LEHE212:
	leaq	62(%rbp), %rax
	movq	%rax, %rcx
	call	_ZNSaIcED1Ev
	addq	$32, %rsi
	subq	$1, %rbx
	leaq	63(%rbp), %rax
	movq	%rax, %rcx
	call	_ZNSaIcEC1Ev
	leaq	63(%rbp), %rax
	movq	%rax, %r8
	leaq	.LC44(%rip), %rdx
	movq	%rsi, %rcx
.LEHB213:
	call	_ZNSt7__cxx1112basic_stringIcSt11char_traitsIcESaIcEEC1EPKcRKS3_
.LEHE213:
	leaq	63(%rbp), %rax
	movq	%rax, %rcx
	call	_ZNSaIcED1Ev
	addq	$32, %rsi
	subq	$1, %rbx
	leaq	64(%rbp), %rax
	movq	%rax, %rcx
	call	_ZNSaIcEC1Ev
	leaq	64(%rbp), %rax
	movq	%rax, %r8
	leaq	.LC167(%rip), %rdx
	movq	%rsi, %rcx
.LEHB214:
	call	_ZNSt7__cxx1112basic_stringIcSt11char_traitsIcESaIcEEC1EPKcRKS3_
.LEHE214:
	leaq	64(%rbp), %rax
	movq	%rax, %rcx
	call	_ZNSaIcED1Ev
	addq	$32, %rsi
	subq	$1, %rbx
	leaq	65(%rbp), %rax
	movq	%rax, %rcx
	call	_ZNSaIcEC1Ev
	leaq	65(%rbp), %rax
	movq	%rax, %r8
	leaq	.LC168(%rip), %rdx
	movq	%rsi, %rcx
.LEHB215:
	call	_ZNSt7__cxx1112basic_stringIcSt11char_traitsIcESaIcEEC1EPKcRKS3_
.LEHE215:
	leaq	65(%rbp), %rax
	movq	%rax, %rcx
	call	_ZNSaIcED1Ev
	addq	$32, %rsi
	subq	$1, %rbx
	leaq	66(%rbp), %rax
	movq	%rax, %rcx
	call	_ZNSaIcEC1Ev
	leaq	66(%rbp), %rax
	movq	%rax, %r8
	leaq	.LC169(%rip), %rdx
	movq	%rsi, %rcx
.LEHB216:
	call	_ZNSt7__cxx1112basic_stringIcSt11char_traitsIcESaIcEEC1EPKcRKS3_
.LEHE216:
	leaq	66(%rbp), %rax
	movq	%rax, %rcx
	call	_ZNSaIcED1Ev
	addq	$32, %rsi
	subq	$1, %rbx
	leaq	67(%rbp), %rax
	movq	%rax, %rcx
	call	_ZNSaIcEC1Ev
	leaq	67(%rbp), %rax
	movq	%rax, %r8
	leaq	.LC170(%rip), %rdx
	movq	%rsi, %rcx
.LEHB217:
	call	_ZNSt7__cxx1112basic_stringIcSt11char_traitsIcESaIcEEC1EPKcRKS3_
.LEHE217:
	leaq	67(%rbp), %rax
	movq	%rax, %rcx
	call	_ZNSaIcED1Ev
	addq	$32, %rsi
	subq	$1, %rbx
	leaq	68(%rbp), %rax
	movq	%rax, %rcx
	call	_ZNSaIcEC1Ev
	leaq	68(%rbp), %rax
	movq	%rax, %r8
	leaq	.LC171(%rip), %rdx
	movq	%rsi, %rcx
.LEHB218:
	call	_ZNSt7__cxx1112basic_stringIcSt11char_traitsIcESaIcEEC1EPKcRKS3_
.LEHE218:
	leaq	68(%rbp), %rax
	movq	%rax, %rcx
	call	_ZNSaIcED1Ev
	addq	$32, %rsi
	subq	$1, %rbx
	leaq	69(%rbp), %rax
	movq	%rax, %rcx
	call	_ZNSaIcEC1Ev
	leaq	69(%rbp), %rax
	movq	%rax, %r8
	leaq	.LC172(%rip), %rdx
	movq	%rsi, %rcx
.LEHB219:
	call	_ZNSt7__cxx1112basic_stringIcSt11char_traitsIcESaIcEEC1EPKcRKS3_
.LEHE219:
	leaq	69(%rbp), %rax
	movq	%rax, %rcx
	call	_ZNSaIcED1Ev
	addq	$32, %rsi
	subq	$1, %rbx
	leaq	70(%rbp), %rax
	movq	%rax, %rcx
	call	_ZNSaIcEC1Ev
	leaq	70(%rbp), %rax
	movq	%rax, %r8
	leaq	.LC141(%rip), %rdx
	movq	%rsi, %rcx
.LEHB220:
	call	_ZNSt7__cxx1112basic_stringIcSt11char_traitsIcESaIcEEC1EPKcRKS3_
.LEHE220:
	leaq	70(%rbp), %rax
	movq	%rax, %rcx
	call	_ZNSaIcED1Ev
	addq	$32, %rsi
	subq	$1, %rbx
	leaq	71(%rbp), %rax
	movq	%rax, %rcx
	call	_ZNSaIcEC1Ev
	leaq	71(%rbp), %rax
	movq	%rax, %r8
	leaq	.LC43(%rip), %rdx
	movq	%rsi, %rcx
.LEHB221:
	call	_ZNSt7__cxx1112basic_stringIcSt11char_traitsIcESaIcEEC1EPKcRKS3_
.LEHE221:
	leaq	71(%rbp), %rax
	movq	%rax, %rcx
	call	_ZNSaIcED1Ev
	addq	$32, %rsi
	subq	$1, %rbx
	leaq	72(%rbp), %rax
	movq	%rax, %rcx
	call	_ZNSaIcEC1Ev
	leaq	72(%rbp), %rax
	movq	%rax, %r8
	leaq	.LC173(%rip), %rdx
	movq	%rsi, %rcx
.LEHB222:
	call	_ZNSt7__cxx1112basic_stringIcSt11char_traitsIcESaIcEEC1EPKcRKS3_
.LEHE222:
	leaq	72(%rbp), %rax
	movq	%rax, %rcx
	call	_ZNSaIcED1Ev
	addq	$32, %rsi
	subq	$1, %rbx
	leaq	73(%rbp), %rax
	movq	%rax, %rcx
	call	_ZNSaIcEC1Ev
	leaq	73(%rbp), %rax
	movq	%rax, %r8
	leaq	.LC174(%rip), %rdx
	movq	%rsi, %rcx
.LEHB223:
	call	_ZNSt7__cxx1112basic_stringIcSt11char_traitsIcESaIcEEC1EPKcRKS3_
.LEHE223:
	leaq	73(%rbp), %rax
	movq	%rax, %rcx
	call	_ZNSaIcED1Ev
	addq	$32, %rsi
	subq	$1, %rbx
	leaq	74(%rbp), %rax
	movq	%rax, %rcx
	call	_ZNSaIcEC1Ev
	leaq	74(%rbp), %rax
	movq	%rax, %r8
	leaq	.LC175(%rip), %rdx
	movq	%rsi, %rcx
.LEHB224:
	call	_ZNSt7__cxx1112basic_stringIcSt11char_traitsIcESaIcEEC1EPKcRKS3_
.LEHE224:
	leaq	74(%rbp), %rax
	movq	%rax, %rcx
	call	_ZNSaIcED1Ev
	addq	$32, %rsi
	subq	$1, %rbx
	leaq	75(%rbp), %rax
	movq	%rax, %rcx
	call	_ZNSaIcEC1Ev
	leaq	75(%rbp), %rax
	movq	%rax, %r8
	leaq	.LC176(%rip), %rdx
	movq	%rsi, %rcx
.LEHB225:
	call	_ZNSt7__cxx1112basic_stringIcSt11char_traitsIcESaIcEEC1EPKcRKS3_
.LEHE225:
	leaq	75(%rbp), %rax
	movq	%rax, %rcx
	call	_ZNSaIcED1Ev
	addq	$32, %rsi
	subq	$1, %rbx
	leaq	76(%rbp), %rax
	movq	%rax, %rcx
	call	_ZNSaIcEC1Ev
	leaq	76(%rbp), %rax
	movq	%rax, %r8
	leaq	.LC142(%rip), %rdx
	movq	%rsi, %rcx
.LEHB226:
	call	_ZNSt7__cxx1112basic_stringIcSt11char_traitsIcESaIcEEC1EPKcRKS3_
.LEHE226:
	leaq	76(%rbp), %rax
	movq	%rax, %rcx
	call	_ZNSaIcED1Ev
	addq	$32, %rsi
	subq	$1, %rbx
	leaq	77(%rbp), %rax
	movq	%rax, %rcx
	call	_ZNSaIcEC1Ev
	leaq	77(%rbp), %rax
	movq	%rax, %r8
	leaq	.LC44(%rip), %rdx
	movq	%rsi, %rcx
.LEHB227:
	call	_ZNSt7__cxx1112basic_stringIcSt11char_traitsIcESaIcEEC1EPKcRKS3_
.LEHE227:
	leaq	77(%rbp), %rax
	movq	%rax, %rcx
	call	_ZNSaIcED1Ev
	addq	$32, %rsi
	subq	$1, %rbx
	leaq	78(%rbp), %rax
	movq	%rax, %rcx
	call	_ZNSaIcEC1Ev
	leaq	78(%rbp), %rax
	movq	%rax, %r8
	leaq	.LC177(%rip), %rdx
	movq	%rsi, %rcx
.LEHB228:
	call	_ZNSt7__cxx1112basic_stringIcSt11char_traitsIcESaIcEEC1EPKcRKS3_
.LEHE228:
	leaq	78(%rbp), %rax
	movq	%rax, %rcx
	call	_ZNSaIcED1Ev
	addq	$32, %rsi
	subq	$1, %rbx
	leaq	79(%rbp), %rax
	movq	%rax, %rcx
	call	_ZNSaIcEC1Ev
	leaq	79(%rbp), %rax
	movq	%rax, %r8
	leaq	.LC178(%rip), %rdx
	movq	%rsi, %rcx
.LEHB229:
	call	_ZNSt7__cxx1112basic_stringIcSt11char_traitsIcESaIcEEC1EPKcRKS3_
.LEHE229:
	leaq	79(%rbp), %rax
	movq	%rax, %rcx
	call	_ZNSaIcED1Ev
	addq	$32, %rsi
	subq	$1, %rbx
	leaq	80(%rbp), %rax
	movq	%rax, %rcx
	call	_ZNSaIcEC1Ev
	leaq	80(%rbp), %rax
	movq	%rax, %r8
	leaq	.LC145(%rip), %rdx
	movq	%rsi, %rcx
.LEHB230:
	call	_ZNSt7__cxx1112basic_stringIcSt11char_traitsIcESaIcEEC1EPKcRKS3_
.LEHE230:
	leaq	80(%rbp), %rax
	movq	%rax, %rcx
	call	_ZNSaIcED1Ev
	addq	$32, %rsi
	subq	$1, %rbx
	leaq	81(%rbp), %rax
	movq	%rax, %rcx
	call	_ZNSaIcEC1Ev
	leaq	81(%rbp), %rax
	movq	%rax, %r8
	leaq	.LC44(%rip), %rdx
	movq	%rsi, %rcx
.LEHB231:
	call	_ZNSt7__cxx1112basic_stringIcSt11char_traitsIcESaIcEEC1EPKcRKS3_
.LEHE231:
	leaq	81(%rbp), %rax
	movq	%rax, %rcx
	call	_ZNSaIcED1Ev
	addq	$32, %rsi
	subq	$1, %rbx
	leaq	82(%rbp), %rax
	movq	%rax, %rcx
	call	_ZNSaIcEC1Ev
	leaq	82(%rbp), %rax
	movq	%rax, %r8
	leaq	.LC179(%rip), %rdx
	movq	%rsi, %rcx
.LEHB232:
	call	_ZNSt7__cxx1112basic_stringIcSt11char_traitsIcESaIcEEC1EPKcRKS3_
.LEHE232:
	leaq	82(%rbp), %rax
	movq	%rax, %rcx
	call	_ZNSaIcED1Ev
	addq	$32, %rsi
	subq	$1, %rbx
	leaq	83(%rbp), %rax
	movq	%rax, %rcx
	call	_ZNSaIcEC1Ev
	leaq	83(%rbp), %rax
	movq	%rax, %r8
	leaq	.LC180(%rip), %rdx
	movq	%rsi, %rcx
.LEHB233:
	call	_ZNSt7__cxx1112basic_stringIcSt11char_traitsIcESaIcEEC1EPKcRKS3_
.LEHE233:
	leaq	83(%rbp), %rax
	movq	%rax, %rcx
	call	_ZNSaIcED1Ev
	addq	$32, %rsi
	subq	$1, %rbx
	leaq	84(%rbp), %rax
	movq	%rax, %rcx
	call	_ZNSaIcEC1Ev
	leaq	84(%rbp), %rax
	movq	%rax, %r8
	leaq	.LC181(%rip), %rdx
	movq	%rsi, %rcx
.LEHB234:
	call	_ZNSt7__cxx1112basic_stringIcSt11char_traitsIcESaIcEEC1EPKcRKS3_
.LEHE234:
	leaq	84(%rbp), %rax
	movq	%rax, %rcx
	call	_ZNSaIcED1Ev
	addq	$32, %rsi
	subq	$1, %rbx
	leaq	85(%rbp), %rax
	movq	%rax, %rcx
	call	_ZNSaIcEC1Ev
	leaq	85(%rbp), %rax
	movq	%rax, %r8
	leaq	.LC182(%rip), %rdx
	movq	%rsi, %rcx
.LEHB235:
	call	_ZNSt7__cxx1112basic_stringIcSt11char_traitsIcESaIcEEC1EPKcRKS3_
.LEHE235:
	leaq	85(%rbp), %rax
	movq	%rax, %rcx
	call	_ZNSaIcED1Ev
	addq	$32, %rsi
	subq	$1, %rbx
	leaq	86(%rbp), %rax
	movq	%rax, %rcx
	call	_ZNSaIcEC1Ev
	leaq	86(%rbp), %rax
	movq	%rax, %r8
	leaq	.LC183(%rip), %rdx
	movq	%rsi, %rcx
.LEHB236:
	call	_ZNSt7__cxx1112basic_stringIcSt11char_traitsIcESaIcEEC1EPKcRKS3_
.LEHE236:
	leaq	86(%rbp), %rax
	movq	%rax, %rcx
	call	_ZNSaIcED1Ev
	addq	$32, %rsi
	subq	$1, %rbx
	leaq	87(%rbp), %rax
	movq	%rax, %rcx
	call	_ZNSaIcEC1Ev
	leaq	87(%rbp), %rax
	movq	%rax, %r8
	leaq	.LC184(%rip), %rdx
	movq	%rsi, %rcx
.LEHB237:
	call	_ZNSt7__cxx1112basic_stringIcSt11char_traitsIcESaIcEEC1EPKcRKS3_
.LEHE237:
	leaq	87(%rbp), %rax
	movq	%rax, %rcx
	call	_ZNSaIcED1Ev
	addq	$32, %rsi
	subq	$1, %rbx
	leaq	88(%rbp), %rax
	movq	%rax, %rcx
	call	_ZNSaIcEC1Ev
	leaq	88(%rbp), %rax
	movq	%rax, %r8
	leaq	.LC43(%rip), %rdx
	movq	%rsi, %rcx
.LEHB238:
	call	_ZNSt7__cxx1112basic_stringIcSt11char_traitsIcESaIcEEC1EPKcRKS3_
.LEHE238:
	leaq	88(%rbp), %rax
	movq	%rax, %rcx
	call	_ZNSaIcED1Ev
	addq	$32, %rsi
	subq	$1, %rbx
	leaq	89(%rbp), %rax
	movq	%rax, %rcx
	call	_ZNSaIcEC1Ev
	leaq	89(%rbp), %rax
	movq	%rax, %r8
	leaq	.LC185(%rip), %rdx
	movq	%rsi, %rcx
.LEHB239:
	call	_ZNSt7__cxx1112basic_stringIcSt11char_traitsIcESaIcEEC1EPKcRKS3_
.LEHE239:
	leaq	89(%rbp), %rax
	movq	%rax, %rcx
	call	_ZNSaIcED1Ev
	addq	$32, %rsi
	subq	$1, %rbx
	leaq	90(%rbp), %rax
	movq	%rax, %rcx
	call	_ZNSaIcEC1Ev
	leaq	90(%rbp), %rax
	movq	%rax, %r8
	leaq	.LC186(%rip), %rdx
	movq	%rsi, %rcx
.LEHB240:
	call	_ZNSt7__cxx1112basic_stringIcSt11char_traitsIcESaIcEEC1EPKcRKS3_
.LEHE240:
	leaq	90(%rbp), %rax
	movq	%rax, %rcx
	call	_ZNSaIcED1Ev
	addq	$32, %rsi
	subq	$1, %rbx
	leaq	91(%rbp), %rax
	movq	%rax, %rcx
	call	_ZNSaIcEC1Ev
	leaq	91(%rbp), %rax
	movq	%rax, %r8
	leaq	.LC173(%rip), %rdx
	movq	%rsi, %rcx
.LEHB241:
	call	_ZNSt7__cxx1112basic_stringIcSt11char_traitsIcESaIcEEC1EPKcRKS3_
.LEHE241:
	leaq	91(%rbp), %rax
	movq	%rax, %rcx
	call	_ZNSaIcED1Ev
	addq	$32, %rsi
	subq	$1, %rbx
	leaq	92(%rbp), %rax
	movq	%rax, %rcx
	call	_ZNSaIcEC1Ev
	leaq	92(%rbp), %rax
	movq	%rax, %r8
	leaq	.LC187(%rip), %rdx
	movq	%rsi, %rcx
.LEHB242:
	call	_ZNSt7__cxx1112basic_stringIcSt11char_traitsIcESaIcEEC1EPKcRKS3_
.LEHE242:
	leaq	92(%rbp), %rax
	movq	%rax, %rcx
	call	_ZNSaIcED1Ev
	addq	$32, %rsi
	subq	$1, %rbx
	leaq	93(%rbp), %rax
	movq	%rax, %rcx
	call	_ZNSaIcEC1Ev
	leaq	93(%rbp), %rax
	movq	%rax, %r8
	leaq	.LC43(%rip), %rdx
	movq	%rsi, %rcx
.LEHB243:
	call	_ZNSt7__cxx1112basic_stringIcSt11char_traitsIcESaIcEEC1EPKcRKS3_
.LEHE243:
	leaq	93(%rbp), %rax
	movq	%rax, %rcx
	call	_ZNSaIcED1Ev
	addq	$32, %rsi
	subq	$1, %rbx
	leaq	94(%rbp), %rax
	movq	%rax, %rcx
	call	_ZNSaIcEC1Ev
	leaq	94(%rbp), %rax
	movq	%rax, %r8
	leaq	.LC44(%rip), %rdx
	movq	%rsi, %rcx
.LEHB244:
	call	_ZNSt7__cxx1112basic_stringIcSt11char_traitsIcESaIcEEC1EPKcRKS3_
.LEHE244:
	leaq	94(%rbp), %rax
	movq	%rax, %rcx
	call	_ZNSaIcED1Ev
	addq	$32, %rsi
	subq	$1, %rbx
	leaq	95(%rbp), %rax
	movq	%rax, %rcx
	call	_ZNSaIcEC1Ev
	leaq	95(%rbp), %rax
	movq	%rax, %r8
	leaq	.LC188(%rip), %rdx
	movq	%rsi, %rcx
.LEHB245:
	call	_ZNSt7__cxx1112basic_stringIcSt11char_traitsIcESaIcEEC1EPKcRKS3_
.LEHE245:
	leaq	95(%rbp), %rax
	movq	%rax, %rcx
	call	_ZNSaIcED1Ev
	addq	$32, %rsi
	subq	$1, %rbx
	leaq	96(%rbp), %rax
	movq	%rax, %rcx
	call	_ZNSaIcEC1Ev
	leaq	96(%rbp), %rax
	movq	%rax, %r8
	leaq	.LC189(%rip), %rdx
	movq	%rsi, %rcx
.LEHB246:
	call	_ZNSt7__cxx1112basic_stringIcSt11char_traitsIcESaIcEEC1EPKcRKS3_
.LEHE246:
	leaq	96(%rbp), %rax
	movq	%rax, %rcx
	call	_ZNSaIcED1Ev
	addq	$32, %rsi
	subq	$1, %rbx
	leaq	97(%rbp), %rax
	movq	%rax, %rcx
	call	_ZNSaIcEC1Ev
	leaq	97(%rbp), %rax
	movq	%rax, %r8
	leaq	.LC190(%rip), %rdx
	movq	%rsi, %rcx
.LEHB247:
	call	_ZNSt7__cxx1112basic_stringIcSt11char_traitsIcESaIcEEC1EPKcRKS3_
.LEHE247:
	leaq	97(%rbp), %rax
	movq	%rax, %rcx
	call	_ZNSaIcED1Ev
	addq	$32, %rsi
	subq	$1, %rbx
	leaq	98(%rbp), %rax
	movq	%rax, %rcx
	call	_ZNSaIcEC1Ev
	leaq	98(%rbp), %rax
	movq	%rax, %r8
	leaq	.LC191(%rip), %rdx
	movq	%rsi, %rcx
.LEHB248:
	call	_ZNSt7__cxx1112basic_stringIcSt11char_traitsIcESaIcEEC1EPKcRKS3_
.LEHE248:
	leaq	98(%rbp), %rax
	movq	%rax, %rcx
	call	_ZNSaIcED1Ev
	addq	$32, %rsi
	subq	$1, %rbx
	leaq	99(%rbp), %rax
	movq	%rax, %rcx
	call	_ZNSaIcEC1Ev
	leaq	99(%rbp), %rax
	movq	%rax, %r8
	leaq	.LC192(%rip), %rdx
	movq	%rsi, %rcx
.LEHB249:
	call	_ZNSt7__cxx1112basic_stringIcSt11char_traitsIcESaIcEEC1EPKcRKS3_
.LEHE249:
	leaq	99(%rbp), %rax
	movq	%rax, %rcx
	call	_ZNSaIcED1Ev
	addq	$32, %rsi
	subq	$1, %rbx
	leaq	100(%rbp), %rax
	movq	%rax, %rcx
	call	_ZNSaIcEC1Ev
	leaq	100(%rbp), %rax
	movq	%rax, %r8
	leaq	.LC142(%rip), %rdx
	movq	%rsi, %rcx
.LEHB250:
	call	_ZNSt7__cxx1112basic_stringIcSt11char_traitsIcESaIcEEC1EPKcRKS3_
.LEHE250:
	leaq	100(%rbp), %rax
	movq	%rax, %rcx
	call	_ZNSaIcED1Ev
	addq	$32, %rsi
	subq	$1, %rbx
	leaq	101(%rbp), %rax
	movq	%rax, %rcx
	call	_ZNSaIcEC1Ev
	leaq	101(%rbp), %rax
	movq	%rax, %r8
	leaq	.LC44(%rip), %rdx
	movq	%rsi, %rcx
.LEHB251:
	call	_ZNSt7__cxx1112basic_stringIcSt11char_traitsIcESaIcEEC1EPKcRKS3_
.LEHE251:
	leaq	101(%rbp), %rax
	movq	%rax, %rcx
	call	_ZNSaIcED1Ev
	addq	$32, %rsi
	subq	$1, %rbx
	leaq	102(%rbp), %rax
	movq	%rax, %rcx
	call	_ZNSaIcEC1Ev
	leaq	102(%rbp), %rax
	movq	%rax, %r8
	leaq	.LC193(%rip), %rdx
	movq	%rsi, %rcx
.LEHB252:
	call	_ZNSt7__cxx1112basic_stringIcSt11char_traitsIcESaIcEEC1EPKcRKS3_
.LEHE252:
	leaq	102(%rbp), %rax
	movq	%rax, %rcx
	call	_ZNSaIcED1Ev
	addq	$32, %rsi
	subq	$1, %rbx
	leaq	103(%rbp), %rax
	movq	%rax, %rcx
	call	_ZNSaIcEC1Ev
	leaq	103(%rbp), %rax
	movq	%rax, %r8
	leaq	.LC75(%rip), %rdx
	movq	%rsi, %rcx
.LEHB253:
	call	_ZNSt7__cxx1112basic_stringIcSt11char_traitsIcESaIcEEC1EPKcRKS3_
.LEHE253:
	leaq	103(%rbp), %rax
	movq	%rax, %rcx
	call	_ZNSaIcED1Ev
	addq	$32, %rsi
	subq	$1, %rbx
	leaq	104(%rbp), %rax
	movq	%rax, %rcx
	call	_ZNSaIcEC1Ev
	leaq	104(%rbp), %rax
	movq	%rax, %r8
	leaq	.LC194(%rip), %rdx
	movq	%rsi, %rcx
.LEHB254:
	call	_ZNSt7__cxx1112basic_stringIcSt11char_traitsIcESaIcEEC1EPKcRKS3_
.LEHE254:
	leaq	104(%rbp), %rax
	movq	%rax, %rcx
	call	_ZNSaIcED1Ev
	addq	$32, %rsi
	subq	$1, %rbx
	leaq	105(%rbp), %rax
	movq	%rax, %rcx
	call	_ZNSaIcEC1Ev
	leaq	105(%rbp), %rax
	movq	%rax, %r8
	leaq	.LC195(%rip), %rdx
	movq	%rsi, %rcx
.LEHB255:
	call	_ZNSt7__cxx1112basic_stringIcSt11char_traitsIcESaIcEEC1EPKcRKS3_
.LEHE255:
	leaq	105(%rbp), %rax
	movq	%rax, %rcx
	call	_ZNSaIcED1Ev
	addq	$32, %rsi
	subq	$1, %rbx
	leaq	106(%rbp), %rax
	movq	%rax, %rcx
	call	_ZNSaIcEC1Ev
	leaq	106(%rbp), %rax
	movq	%rax, %r8
	leaq	.LC196(%rip), %rdx
	movq	%rsi, %rcx
.LEHB256:
	call	_ZNSt7__cxx1112basic_stringIcSt11char_traitsIcESaIcEEC1EPKcRKS3_
.LEHE256:
	leaq	106(%rbp), %rax
	movq	%rax, %rcx
	call	_ZNSaIcED1Ev
	addq	$32, %rsi
	subq	$1, %rbx
	leaq	107(%rbp), %rax
	movq	%rax, %rcx
	call	_ZNSaIcEC1Ev
	leaq	107(%rbp), %rax
	movq	%rax, %r8
	leaq	.LC62(%rip), %rdx
	movq	%rsi, %rcx
.LEHB257:
	call	_ZNSt7__cxx1112basic_stringIcSt11char_traitsIcESaIcEEC1EPKcRKS3_
.LEHE257:
	leaq	107(%rbp), %rax
	movq	%rax, %rcx
	call	_ZNSaIcED1Ev
	addq	$32, %rsi
	subq	$1, %rbx
	leaq	108(%rbp), %rax
	movq	%rax, %rcx
	call	_ZNSaIcEC1Ev
	leaq	108(%rbp), %rax
	movq	%rax, %r8
	leaq	.LC197(%rip), %rdx
	movq	%rsi, %rcx
.LEHB258:
	call	_ZNSt7__cxx1112basic_stringIcSt11char_traitsIcESaIcEEC1EPKcRKS3_
.LEHE258:
	leaq	108(%rbp), %rax
	movq	%rax, %rcx
	call	_ZNSaIcED1Ev
	addq	$32, %rsi
	subq	$1, %rbx
	leaq	109(%rbp), %rax
	movq	%rax, %rcx
	call	_ZNSaIcEC1Ev
	leaq	109(%rbp), %rax
	movq	%rax, %r8
	leaq	.LC47(%rip), %rdx
	movq	%rsi, %rcx
.LEHB259:
	call	_ZNSt7__cxx1112basic_stringIcSt11char_traitsIcESaIcEEC1EPKcRKS3_
.LEHE259:
	leaq	109(%rbp), %rax
	movq	%rax, %rcx
	call	_ZNSaIcED1Ev
	addq	$32, %rsi
	subq	$1, %rbx
	leaq	110(%rbp), %rax
	movq	%rax, %rcx
	call	_ZNSaIcEC1Ev
	leaq	110(%rbp), %rax
	movq	%rax, %r8
	leaq	.LC198(%rip), %rdx
	movq	%rsi, %rcx
.LEHB260:
	call	_ZNSt7__cxx1112basic_stringIcSt11char_traitsIcESaIcEEC1EPKcRKS3_
.LEHE260:
	leaq	110(%rbp), %rax
	movq	%rax, %rcx
	call	_ZNSaIcED1Ev
	addq	$32, %rsi
	subq	$1, %rbx
	leaq	111(%rbp), %rax
	movq	%rax, %rcx
	call	_ZNSaIcEC1Ev
	leaq	111(%rbp), %rax
	movq	%rax, %r8
	leaq	.LC62(%rip), %rdx
	movq	%rsi, %rcx
.LEHB261:
	call	_ZNSt7__cxx1112basic_stringIcSt11char_traitsIcESaIcEEC1EPKcRKS3_
.LEHE261:
	leaq	111(%rbp), %rax
	movq	%rax, %rcx
	call	_ZNSaIcED1Ev
	addq	$32, %rsi
	subq	$1, %rbx
	leaq	112(%rbp), %rax
	movq	%rax, %rcx
	call	_ZNSaIcEC1Ev
	leaq	112(%rbp), %rax
	movq	%rax, %r8
	leaq	.LC199(%rip), %rdx
	movq	%rsi, %rcx
.LEHB262:
	call	_ZNSt7__cxx1112basic_stringIcSt11char_traitsIcESaIcEEC1EPKcRKS3_
.LEHE262:
	leaq	112(%rbp), %rax
	movq	%rax, %rcx
	call	_ZNSaIcED1Ev
	addq	$32, %rsi
	subq	$1, %rbx
	leaq	113(%rbp), %rax
	movq	%rax, %rcx
	call	_ZNSaIcEC1Ev
	leaq	113(%rbp), %rax
	movq	%rax, %r8
	leaq	.LC97(%rip), %rdx
	movq	%rsi, %rcx
.LEHB263:
	call	_ZNSt7__cxx1112basic_stringIcSt11char_traitsIcESaIcEEC1EPKcRKS3_
.LEHE263:
	leaq	113(%rbp), %rax
	movq	%rax, %rcx
	call	_ZNSaIcED1Ev
	addq	$32, %rsi
	subq	$1, %rbx
	leaq	114(%rbp), %rax
	movq	%rax, %rcx
	call	_ZNSaIcEC1Ev
	leaq	114(%rbp), %rax
	movq	%rax, %r8
	leaq	.LC62(%rip), %rdx
	movq	%rsi, %rcx
.LEHB264:
	call	_ZNSt7__cxx1112basic_stringIcSt11char_traitsIcESaIcEEC1EPKcRKS3_
.LEHE264:
	leaq	114(%rbp), %rax
	movq	%rax, %rcx
	call	_ZNSaIcED1Ev
	addq	$32, %rsi
	subq	$1, %rbx
	leaq	115(%rbp), %rax
	movq	%rax, %rcx
	call	_ZNSaIcEC1Ev
	leaq	115(%rbp), %rax
	movq	%rax, %r8
	leaq	.LC200(%rip), %rdx
	movq	%rsi, %rcx
.LEHB265:
	call	_ZNSt7__cxx1112basic_stringIcSt11char_traitsIcESaIcEEC1EPKcRKS3_
.LEHE265:
	leaq	115(%rbp), %rax
	movq	%rax, %rcx
	call	_ZNSaIcED1Ev
	addq	$32, %rsi
	subq	$1, %rbx
	leaq	116(%rbp), %rax
	movq	%rax, %rcx
	call	_ZNSaIcEC1Ev
	leaq	116(%rbp), %rax
	movq	%rax, %r8
	leaq	.LC148(%rip), %rdx
	movq	%rsi, %rcx
.LEHB266:
	call	_ZNSt7__cxx1112basic_stringIcSt11char_traitsIcESaIcEEC1EPKcRKS3_
.LEHE266:
	leaq	116(%rbp), %rax
	movq	%rax, %rcx
	call	_ZNSaIcED1Ev
	addq	$32, %rsi
	subq	$1, %rbx
	leaq	117(%rbp), %rax
	movq	%rax, %rcx
	call	_ZNSaIcEC1Ev
	leaq	117(%rbp), %rax
	movq	%rax, %r8
	leaq	.LC201(%rip), %rdx
	movq	%rsi, %rcx
.LEHB267:
	call	_ZNSt7__cxx1112basic_stringIcSt11char_traitsIcESaIcEEC1EPKcRKS3_
.LEHE267:
	leaq	117(%rbp), %rax
	movq	%rax, %rcx
	call	_ZNSaIcED1Ev
	addq	$32, %rsi
	subq	$1, %rbx
	leaq	118(%rbp), %rax
	movq	%rax, %rcx
	call	_ZNSaIcEC1Ev
	leaq	118(%rbp), %rax
	movq	%rax, %r8
	leaq	.LC202(%rip), %rdx
	movq	%rsi, %rcx
.LEHB268:
	call	_ZNSt7__cxx1112basic_stringIcSt11char_traitsIcESaIcEEC1EPKcRKS3_
.LEHE268:
	leaq	118(%rbp), %rax
	movq	%rax, %rcx
	call	_ZNSaIcED1Ev
	addq	$32, %rsi
	subq	$1, %rbx
	leaq	119(%rbp), %rax
	movq	%rax, %rcx
	call	_ZNSaIcEC1Ev
	leaq	119(%rbp), %rax
	movq	%rax, %r8
	leaq	.LC150(%rip), %rdx
	movq	%rsi, %rcx
.LEHB269:
	call	_ZNSt7__cxx1112basic_stringIcSt11char_traitsIcESaIcEEC1EPKcRKS3_
.LEHE269:
	leaq	119(%rbp), %rax
	movq	%rax, %rcx
	call	_ZNSaIcED1Ev
	addq	$32, %rsi
	subq	$1, %rbx
	leaq	120(%rbp), %rax
	movq	%rax, %rcx
	call	_ZNSaIcEC1Ev
	leaq	120(%rbp), %rax
	movq	%rax, %r8
	leaq	.LC203(%rip), %rdx
	movq	%rsi, %rcx
.LEHB270:
	call	_ZNSt7__cxx1112basic_stringIcSt11char_traitsIcESaIcEEC1EPKcRKS3_
.LEHE270:
	leaq	120(%rbp), %rax
	movq	%rax, %rcx
	call	_ZNSaIcED1Ev
	addq	$32, %rsi
	subq	$1, %rbx
	leaq	121(%rbp), %rax
	movq	%rax, %rcx
	call	_ZNSaIcEC1Ev
	leaq	121(%rbp), %rax
	movq	%rax, %r8
	leaq	.LC204(%rip), %rdx
	movq	%rsi, %rcx
.LEHB271:
	call	_ZNSt7__cxx1112basic_stringIcSt11char_traitsIcESaIcEEC1EPKcRKS3_
.LEHE271:
	leaq	121(%rbp), %rax
	movq	%rax, %rcx
	call	_ZNSaIcED1Ev
	addq	$32, %rsi
	subq	$1, %rbx
	leaq	122(%rbp), %rax
	movq	%rax, %rcx
	call	_ZNSaIcEC1Ev
	leaq	122(%rbp), %rax
	movq	%rax, %r8
	leaq	.LC205(%rip), %rdx
	movq	%rsi, %rcx
.LEHB272:
	call	_ZNSt7__cxx1112basic_stringIcSt11char_traitsIcESaIcEEC1EPKcRKS3_
.LEHE272:
	leaq	122(%rbp), %rax
	movq	%rax, %rcx
	call	_ZNSaIcED1Ev
	addq	$32, %rsi
	subq	$1, %rbx
	leaq	123(%rbp), %rax
	movq	%rax, %rcx
	call	_ZNSaIcEC1Ev
	leaq	123(%rbp), %rax
	movq	%rax, %r8
	leaq	.LC206(%rip), %rdx
	movq	%rsi, %rcx
.LEHB273:
	call	_ZNSt7__cxx1112basic_stringIcSt11char_traitsIcESaIcEEC1EPKcRKS3_
.LEHE273:
	leaq	123(%rbp), %rax
	movq	%rax, %rcx
	call	_ZNSaIcED1Ev
	addq	$32, %rsi
	subq	$1, %rbx
	leaq	124(%rbp), %rax
	movq	%rax, %rcx
	call	_ZNSaIcEC1Ev
	leaq	124(%rbp), %rax
	movq	%rax, %r8
	leaq	.LC207(%rip), %rdx
	movq	%rsi, %rcx
.LEHB274:
	call	_ZNSt7__cxx1112basic_stringIcSt11char_traitsIcESaIcEEC1EPKcRKS3_
.LEHE274:
	leaq	124(%rbp), %rax
	movq	%rax, %rcx
	call	_ZNSaIcED1Ev
	addq	$32, %rsi
	subq	$1, %rbx
	leaq	125(%rbp), %rax
	movq	%rax, %rcx
	call	_ZNSaIcEC1Ev
	leaq	125(%rbp), %rax
	movq	%rax, %r8
	leaq	.LC208(%rip), %rdx
	movq	%rsi, %rcx
.LEHB275:
	call	_ZNSt7__cxx1112basic_stringIcSt11char_traitsIcESaIcEEC1EPKcRKS3_
.LEHE275:
	leaq	125(%rbp), %rax
	movq	%rax, %rcx
	call	_ZNSaIcED1Ev
	addq	$32, %rsi
	subq	$1, %rbx
	leaq	126(%rbp), %rax
	movq	%rax, %rcx
	call	_ZNSaIcEC1Ev
	leaq	126(%rbp), %rax
	movq	%rax, %r8
	leaq	.LC209(%rip), %rdx
	movq	%rsi, %rcx
.LEHB276:
	call	_ZNSt7__cxx1112basic_stringIcSt11char_traitsIcESaIcEEC1EPKcRKS3_
.LEHE276:
	leaq	126(%rbp), %rax
	movq	%rax, %rcx
	call	_ZNSaIcED1Ev
	addq	$32, %rsi
	subq	$1, %rbx
	leaq	127(%rbp), %rax
	movq	%rax, %rcx
	call	_ZNSaIcEC1Ev
	leaq	127(%rbp), %rax
	movq	%rax, %r8
	leaq	.LC210(%rip), %rdx
	movq	%rsi, %rcx
.LEHB277:
	call	_ZNSt7__cxx1112basic_stringIcSt11char_traitsIcESaIcEEC1EPKcRKS3_
.LEHE277:
	leaq	127(%rbp), %rax
	movq	%rax, %rcx
	call	_ZNSaIcED1Ev
	addq	$32, %rsi
	subq	$1, %rbx
	leaq	128(%rbp), %rax
	movq	%rax, %rcx
	call	_ZNSaIcEC1Ev
	leaq	128(%rbp), %rax
	movq	%rax, %r8
	leaq	.LC73(%rip), %rdx
	movq	%rsi, %rcx
.LEHB278:
	call	_ZNSt7__cxx1112basic_stringIcSt11char_traitsIcESaIcEEC1EPKcRKS3_
.LEHE278:
	leaq	128(%rbp), %rax
	movq	%rax, %rcx
	call	_ZNSaIcED1Ev
	addq	$32, %rsi
	subq	$1, %rbx
	leaq	129(%rbp), %rax
	movq	%rax, %rcx
	call	_ZNSaIcEC1Ev
	leaq	129(%rbp), %rax
	movq	%rax, %r8
	leaq	.LC185(%rip), %rdx
	movq	%rsi, %rcx
.LEHB279:
	call	_ZNSt7__cxx1112basic_stringIcSt11char_traitsIcESaIcEEC1EPKcRKS3_
.LEHE279:
	leaq	129(%rbp), %rax
	movq	%rax, %rcx
	call	_ZNSaIcED1Ev
	addq	$32, %rsi
	subq	$1, %rbx
	leaq	130(%rbp), %rax
	movq	%rax, %rcx
	call	_ZNSaIcEC1Ev
	leaq	130(%rbp), %rax
	movq	%rax, %r8
	leaq	.LC145(%rip), %rdx
	movq	%rsi, %rcx
.LEHB280:
	call	_ZNSt7__cxx1112basic_stringIcSt11char_traitsIcESaIcEEC1EPKcRKS3_
.LEHE280:
	leaq	130(%rbp), %rax
	movq	%rax, %rcx
	call	_ZNSaIcED1Ev
	addq	$32, %rsi
	subq	$1, %rbx
	leaq	131(%rbp), %rax
	movq	%rax, %rcx
	call	_ZNSaIcEC1Ev
	leaq	131(%rbp), %rax
	movq	%rax, %r8
	leaq	.LC44(%rip), %rdx
	movq	%rsi, %rcx
.LEHB281:
	call	_ZNSt7__cxx1112basic_stringIcSt11char_traitsIcESaIcEEC1EPKcRKS3_
.LEHE281:
	leaq	131(%rbp), %rax
	movq	%rax, %rcx
	call	_ZNSaIcED1Ev
	addq	$32, %rsi
	subq	$1, %rbx
	leaq	132(%rbp), %rax
	movq	%rax, %rcx
	call	_ZNSaIcEC1Ev
	leaq	132(%rbp), %rax
	movq	%rax, %r8
	leaq	.LC211(%rip), %rdx
	movq	%rsi, %rcx
.LEHB282:
	call	_ZNSt7__cxx1112basic_stringIcSt11char_traitsIcESaIcEEC1EPKcRKS3_
.LEHE282:
	leaq	132(%rbp), %rax
	movq	%rax, %rcx
	call	_ZNSaIcED1Ev
	addq	$32, %rsi
	subq	$1, %rbx
	leaq	133(%rbp), %rax
	movq	%rax, %rcx
	call	_ZNSaIcEC1Ev
	leaq	133(%rbp), %rax
	movq	%rax, %r8
	leaq	.LC212(%rip), %rdx
	movq	%rsi, %rcx
.LEHB283:
	call	_ZNSt7__cxx1112basic_stringIcSt11char_traitsIcESaIcEEC1EPKcRKS3_
.LEHE283:
	leaq	133(%rbp), %rax
	movq	%rax, %rcx
	call	_ZNSaIcED1Ev
	addq	$32, %rsi
	subq	$1, %rbx
	leaq	134(%rbp), %rax
	movq	%rax, %rcx
	call	_ZNSaIcEC1Ev
	leaq	134(%rbp), %rax
	movq	%rax, %r8
	leaq	.LC213(%rip), %rdx
	movq	%rsi, %rcx
.LEHB284:
	call	_ZNSt7__cxx1112basic_stringIcSt11char_traitsIcESaIcEEC1EPKcRKS3_
.LEHE284:
	leaq	134(%rbp), %rax
	movq	%rax, %rcx
	call	_ZNSaIcED1Ev
	addq	$32, %rsi
	subq	$1, %rbx
	leaq	135(%rbp), %rax
	movq	%rax, %rcx
	call	_ZNSaIcEC1Ev
	leaq	135(%rbp), %rax
	movq	%rax, %r8
	leaq	.LC142(%rip), %rdx
	movq	%rsi, %rcx
.LEHB285:
	call	_ZNSt7__cxx1112basic_stringIcSt11char_traitsIcESaIcEEC1EPKcRKS3_
.LEHE285:
	leaq	135(%rbp), %rax
	movq	%rax, %rcx
	call	_ZNSaIcED1Ev
	addq	$32, %rsi
	subq	$1, %rbx
	leaq	136(%rbp), %rax
	movq	%rax, %rcx
	call	_ZNSaIcEC1Ev
	leaq	136(%rbp), %rax
	movq	%rax, %r8
	leaq	.LC214(%rip), %rdx
	movq	%rsi, %rcx
.LEHB286:
	call	_ZNSt7__cxx1112basic_stringIcSt11char_traitsIcESaIcEEC1EPKcRKS3_
.LEHE286:
	leaq	136(%rbp), %rax
	movq	%rax, %rcx
	call	_ZNSaIcED1Ev
	addq	$32, %rsi
	subq	$1, %rbx
	leaq	137(%rbp), %rax
	movq	%rax, %rcx
	call	_ZNSaIcEC1Ev
	leaq	137(%rbp), %rax
	movq	%rax, %r8
	leaq	.LC215(%rip), %rdx
	movq	%rsi, %rcx
.LEHB287:
	call	_ZNSt7__cxx1112basic_stringIcSt11char_traitsIcESaIcEEC1EPKcRKS3_
.LEHE287:
	leaq	137(%rbp), %rax
	movq	%rax, %rcx
	call	_ZNSaIcED1Ev
	addq	$32, %rsi
	subq	$1, %rbx
	leaq	138(%rbp), %rax
	movq	%rax, %rcx
	call	_ZNSaIcEC1Ev
	leaq	138(%rbp), %rax
	movq	%rax, %r8
	leaq	.LC216(%rip), %rdx
	movq	%rsi, %rcx
.LEHB288:
	call	_ZNSt7__cxx1112basic_stringIcSt11char_traitsIcESaIcEEC1EPKcRKS3_
.LEHE288:
	leaq	138(%rbp), %rax
	movq	%rax, %rcx
	call	_ZNSaIcED1Ev
	addq	$32, %rsi
	subq	$1, %rbx
	leaq	139(%rbp), %rax
	movq	%rax, %rcx
	call	_ZNSaIcEC1Ev
	leaq	139(%rbp), %rax
	movq	%rax, %r8
	leaq	.LC217(%rip), %rdx
	movq	%rsi, %rcx
.LEHB289:
	call	_ZNSt7__cxx1112basic_stringIcSt11char_traitsIcESaIcEEC1EPKcRKS3_
.LEHE289:
	leaq	139(%rbp), %rax
	movq	%rax, %rcx
	call	_ZNSaIcED1Ev
	addq	$32, %rsi
	subq	$1, %rbx
	leaq	140(%rbp), %rax
	movq	%rax, %rcx
	call	_ZNSaIcEC1Ev
	leaq	140(%rbp), %rax
	movq	%rax, %r8
	leaq	.LC218(%rip), %rdx
	movq	%rsi, %rcx
.LEHB290:
	call	_ZNSt7__cxx1112basic_stringIcSt11char_traitsIcESaIcEEC1EPKcRKS3_
.LEHE290:
	leaq	140(%rbp), %rax
	movq	%rax, %rcx
	call	_ZNSaIcED1Ev
	addq	$32, %rsi
	subq	$1, %rbx
	leaq	141(%rbp), %rax
	movq	%rax, %rcx
	call	_ZNSaIcEC1Ev
	leaq	141(%rbp), %rax
	movq	%rax, %r8
	leaq	.LC219(%rip), %rdx
	movq	%rsi, %rcx
.LEHB291:
	call	_ZNSt7__cxx1112basic_stringIcSt11char_traitsIcESaIcEEC1EPKcRKS3_
.LEHE291:
	leaq	141(%rbp), %rax
	movq	%rax, %rcx
	call	_ZNSaIcED1Ev
	addq	$32, %rsi
	subq	$1, %rbx
	leaq	142(%rbp), %rax
	movq	%rax, %rcx
	call	_ZNSaIcEC1Ev
	leaq	142(%rbp), %rax
	movq	%rax, %r8
	leaq	.LC56(%rip), %rdx
	movq	%rsi, %rcx
.LEHB292:
	call	_ZNSt7__cxx1112basic_stringIcSt11char_traitsIcESaIcEEC1EPKcRKS3_
.LEHE292:
	leaq	142(%rbp), %rax
	movq	%rax, %rcx
	call	_ZNSaIcED1Ev
	addq	$32, %rsi
	subq	$1, %rbx
	leaq	143(%rbp), %rax
	movq	%rax, %rcx
	call	_ZNSaIcEC1Ev
	leaq	143(%rbp), %rax
	movq	%rax, %r8
	leaq	.LC220(%rip), %rdx
	movq	%rsi, %rcx
.LEHB293:
	call	_ZNSt7__cxx1112basic_stringIcSt11char_traitsIcESaIcEEC1EPKcRKS3_
.LEHE293:
	leaq	143(%rbp), %rax
	movq	%rax, %rcx
	call	_ZNSaIcED1Ev
	addq	$32, %rsi
	subq	$1, %rbx
	leaq	144(%rbp), %rax
	movq	%rax, %rcx
	call	_ZNSaIcEC1Ev
	leaq	144(%rbp), %rax
	movq	%rax, %r8
	leaq	.LC44(%rip), %rdx
	movq	%rsi, %rcx
.LEHB294:
	call	_ZNSt7__cxx1112basic_stringIcSt11char_traitsIcESaIcEEC1EPKcRKS3_
.LEHE294:
	leaq	144(%rbp), %rax
	movq	%rax, %rcx
	call	_ZNSaIcED1Ev
	addq	$32, %rsi
	subq	$1, %rbx
	leaq	145(%rbp), %rax
	movq	%rax, %rcx
	call	_ZNSaIcEC1Ev
	leaq	145(%rbp), %rax
	movq	%rax, %r8
	leaq	.LC221(%rip), %rdx
	movq	%rsi, %rcx
.LEHB295:
	call	_ZNSt7__cxx1112basic_stringIcSt11char_traitsIcESaIcEEC1EPKcRKS3_
.LEHE295:
	leaq	145(%rbp), %rax
	movq	%rax, %rcx
	call	_ZNSaIcED1Ev
	addq	$32, %rsi
	subq	$1, %rbx
	leaq	146(%rbp), %rax
	movq	%rax, %rcx
	call	_ZNSaIcEC1Ev
	leaq	146(%rbp), %rax
	movq	%rax, %r8
	leaq	.LC142(%rip), %rdx
	movq	%rsi, %rcx
.LEHB296:
	call	_ZNSt7__cxx1112basic_stringIcSt11char_traitsIcESaIcEEC1EPKcRKS3_
.LEHE296:
	leaq	146(%rbp), %rax
	movq	%rax, %rcx
	call	_ZNSaIcED1Ev
	addq	$32, %rsi
	subq	$1, %rbx
	leaq	147(%rbp), %rax
	movq	%rax, %rcx
	call	_ZNSaIcEC1Ev
	leaq	147(%rbp), %rax
	movq	%rax, %r8
	leaq	.LC44(%rip), %rdx
	movq	%rsi, %rcx
.LEHB297:
	call	_ZNSt7__cxx1112basic_stringIcSt11char_traitsIcESaIcEEC1EPKcRKS3_
.LEHE297:
	leaq	147(%rbp), %rax
	movq	%rax, %rcx
	call	_ZNSaIcED1Ev
	addq	$32, %rsi
	subq	$1, %rbx
	leaq	148(%rbp), %rax
	movq	%rax, %rcx
	call	_ZNSaIcEC1Ev
	leaq	148(%rbp), %rax
	movq	%rax, %r8
	leaq	.LC222(%rip), %rdx
	movq	%rsi, %rcx
.LEHB298:
	call	_ZNSt7__cxx1112basic_stringIcSt11char_traitsIcESaIcEEC1EPKcRKS3_
.LEHE298:
	leaq	148(%rbp), %rax
	movq	%rax, %rcx
	call	_ZNSaIcED1Ev
	addq	$32, %rsi
	subq	$1, %rbx
	leaq	149(%rbp), %rax
	movq	%rax, %rcx
	call	_ZNSaIcEC1Ev
	leaq	149(%rbp), %rax
	movq	%rax, %r8
	leaq	.LC223(%rip), %rdx
	movq	%rsi, %rcx
.LEHB299:
	call	_ZNSt7__cxx1112basic_stringIcSt11char_traitsIcESaIcEEC1EPKcRKS3_
.LEHE299:
	leaq	149(%rbp), %rax
	movq	%rax, %rcx
	call	_ZNSaIcED1Ev
	addq	$32, %rsi
	subq	$1, %rbx
	leaq	150(%rbp), %rax
	movq	%rax, %rcx
	call	_ZNSaIcEC1Ev
	leaq	150(%rbp), %rax
	movq	%rax, %r8
	leaq	.LC104(%rip), %rdx
	movq	%rsi, %rcx
.LEHB300:
	call	_ZNSt7__cxx1112basic_stringIcSt11char_traitsIcESaIcEEC1EPKcRKS3_
.LEHE300:
	leaq	150(%rbp), %rax
	movq	%rax, %rcx
	call	_ZNSaIcED1Ev
	addq	$32, %rsi
	subq	$1, %rbx
	leaq	151(%rbp), %rax
	movq	%rax, %rcx
	call	_ZNSaIcEC1Ev
	leaq	151(%rbp), %rax
	movq	%rax, %r8
	leaq	.LC224(%rip), %rdx
	movq	%rsi, %rcx
.LEHB301:
	call	_ZNSt7__cxx1112basic_stringIcSt11char_traitsIcESaIcEEC1EPKcRKS3_
.LEHE301:
	leaq	151(%rbp), %rax
	movq	%rax, %rcx
	call	_ZNSaIcED1Ev
	addq	$32, %rsi
	subq	$1, %rbx
	leaq	152(%rbp), %rax
	movq	%rax, %rcx
	call	_ZNSaIcEC1Ev
	leaq	152(%rbp), %rax
	movq	%rax, %r8
	leaq	.LC225(%rip), %rdx
	movq	%rsi, %rcx
.LEHB302:
	call	_ZNSt7__cxx1112basic_stringIcSt11char_traitsIcESaIcEEC1EPKcRKS3_
.LEHE302:
	leaq	152(%rbp), %rax
	movq	%rax, %rcx
	call	_ZNSaIcED1Ev
	addq	$32, %rsi
	subq	$1, %rbx
	leaq	153(%rbp), %rax
	movq	%rax, %rcx
	call	_ZNSaIcEC1Ev
	leaq	153(%rbp), %rax
	movq	%rax, %r8
	leaq	.LC59(%rip), %rdx
	movq	%rsi, %rcx
.LEHB303:
	call	_ZNSt7__cxx1112basic_stringIcSt11char_traitsIcESaIcEEC1EPKcRKS3_
.LEHE303:
	leaq	153(%rbp), %rax
	movq	%rax, %rcx
	call	_ZNSaIcED1Ev
	addq	$32, %rsi
	subq	$1, %rbx
	leaq	154(%rbp), %rax
	movq	%rax, %rcx
	call	_ZNSaIcEC1Ev
	leaq	154(%rbp), %rax
	movq	%rax, %r8
	leaq	.LC73(%rip), %rdx
	movq	%rsi, %rcx
.LEHB304:
	call	_ZNSt7__cxx1112basic_stringIcSt11char_traitsIcESaIcEEC1EPKcRKS3_
.LEHE304:
	leaq	154(%rbp), %rax
	movq	%rax, %rcx
	call	_ZNSaIcED1Ev
	addq	$32, %rsi
	subq	$1, %rbx
	leaq	155(%rbp), %rax
	movq	%rax, %rcx
	call	_ZNSaIcEC1Ev
	leaq	155(%rbp), %rax
	movq	%rax, %r8
	leaq	.LC44(%rip), %rdx
	movq	%rsi, %rcx
.LEHB305:
	call	_ZNSt7__cxx1112basic_stringIcSt11char_traitsIcESaIcEEC1EPKcRKS3_
.LEHE305:
	leaq	155(%rbp), %rax
	movq	%rax, %rcx
	call	_ZNSaIcED1Ev
	addq	$32, %rsi
	subq	$1, %rbx
	leaq	156(%rbp), %rax
	movq	%rax, %rcx
	call	_ZNSaIcEC1Ev
	leaq	156(%rbp), %rax
	movq	%rax, %r8
	leaq	.LC163(%rip), %rdx
	movq	%rsi, %rcx
.LEHB306:
	call	_ZNSt7__cxx1112basic_stringIcSt11char_traitsIcESaIcEEC1EPKcRKS3_
.LEHE306:
	leaq	156(%rbp), %rax
	movq	%rax, %rcx
	call	_ZNSaIcED1Ev
	addq	$32, %rsi
	subq	$1, %rbx
	leaq	157(%rbp), %rax
	movq	%rax, %rcx
	call	_ZNSaIcEC1Ev
	leaq	157(%rbp), %rax
	movq	%rax, %r8
	leaq	.LC47(%rip), %rdx
	movq	%rsi, %rcx
.LEHB307:
	call	_ZNSt7__cxx1112basic_stringIcSt11char_traitsIcESaIcEEC1EPKcRKS3_
.LEHE307:
	leaq	157(%rbp), %rax
	movq	%rax, %rcx
	call	_ZNSaIcED1Ev
	addq	$32, %rsi
	subq	$1, %rbx
	leaq	158(%rbp), %rax
	movq	%rax, %rcx
	call	_ZNSaIcEC1Ev
	leaq	158(%rbp), %rax
	movq	%rax, %r8
	leaq	.LC226(%rip), %rdx
	movq	%rsi, %rcx
.LEHB308:
	call	_ZNSt7__cxx1112basic_stringIcSt11char_traitsIcESaIcEEC1EPKcRKS3_
.LEHE308:
	leaq	158(%rbp), %rax
	movq	%rax, %rcx
	call	_ZNSaIcED1Ev
	addq	$32, %rsi
	subq	$1, %rbx
	leaq	159(%rbp), %rax
	movq	%rax, %rcx
	call	_ZNSaIcEC1Ev
	leaq	159(%rbp), %rax
	movq	%rax, %r8
	leaq	.LC62(%rip), %rdx
	movq	%rsi, %rcx
.LEHB309:
	call	_ZNSt7__cxx1112basic_stringIcSt11char_traitsIcESaIcEEC1EPKcRKS3_
.LEHE309:
	leaq	159(%rbp), %rax
	movq	%rax, %rcx
	call	_ZNSaIcED1Ev
	addq	$32, %rsi
	subq	$1, %rbx
	leaq	160(%rbp), %rax
	movq	%rax, %rcx
	call	_ZNSaIcEC1Ev
	leaq	160(%rbp), %rax
	movq	%rax, %r8
	leaq	.LC227(%rip), %rdx
	movq	%rsi, %rcx
.LEHB310:
	call	_ZNSt7__cxx1112basic_stringIcSt11char_traitsIcESaIcEEC1EPKcRKS3_
.LEHE310:
	leaq	160(%rbp), %rax
	movq	%rax, %rcx
	call	_ZNSaIcED1Ev
	addq	$32, %rsi
	subq	$1, %rbx
	leaq	161(%rbp), %rax
	movq	%rax, %rcx
	call	_ZNSaIcEC1Ev
	leaq	161(%rbp), %rax
	movq	%rax, %r8
	leaq	.LC97(%rip), %rdx
	movq	%rsi, %rcx
.LEHB311:
	call	_ZNSt7__cxx1112basic_stringIcSt11char_traitsIcESaIcEEC1EPKcRKS3_
.LEHE311:
	leaq	161(%rbp), %rax
	movq	%rax, %rcx
	call	_ZNSaIcED1Ev
	addq	$32, %rsi
	subq	$1, %rbx
	leaq	162(%rbp), %rax
	movq	%rax, %rcx
	call	_ZNSaIcEC1Ev
	leaq	162(%rbp), %rax
	movq	%rax, %r8
	leaq	.LC173(%rip), %rdx
	movq	%rsi, %rcx
.LEHB312:
	call	_ZNSt7__cxx1112basic_stringIcSt11char_traitsIcESaIcEEC1EPKcRKS3_
.LEHE312:
	leaq	162(%rbp), %rax
	movq	%rax, %rcx
	call	_ZNSaIcED1Ev
	addq	$32, %rsi
	subq	$1, %rbx
	leaq	163(%rbp), %rax
	movq	%rax, %rcx
	call	_ZNSaIcEC1Ev
	leaq	163(%rbp), %rax
	movq	%rax, %r8
	leaq	.LC228(%rip), %rdx
	movq	%rsi, %rcx
.LEHB313:
	call	_ZNSt7__cxx1112basic_stringIcSt11char_traitsIcESaIcEEC1EPKcRKS3_
.LEHE313:
	leaq	163(%rbp), %rax
	movq	%rax, %rcx
	call	_ZNSaIcED1Ev
	addq	$32, %rsi
	subq	$1, %rbx
	leaq	164(%rbp), %rax
	movq	%rax, %rcx
	call	_ZNSaIcEC1Ev
	leaq	164(%rbp), %rax
	movq	%rax, %r8
	leaq	.LC229(%rip), %rdx
	movq	%rsi, %rcx
.LEHB314:
	call	_ZNSt7__cxx1112basic_stringIcSt11char_traitsIcESaIcEEC1EPKcRKS3_
.LEHE314:
	leaq	164(%rbp), %rax
	movq	%rax, %rcx
	call	_ZNSaIcED1Ev
	addq	$32, %rsi
	subq	$1, %rbx
	leaq	165(%rbp), %rax
	movq	%rax, %rcx
	call	_ZNSaIcEC1Ev
	leaq	165(%rbp), %rax
	movq	%rax, %r8
	leaq	.LC230(%rip), %rdx
	movq	%rsi, %rcx
.LEHB315:
	call	_ZNSt7__cxx1112basic_stringIcSt11char_traitsIcESaIcEEC1EPKcRKS3_
.LEHE315:
	leaq	165(%rbp), %rax
	movq	%rax, %rcx
	call	_ZNSaIcED1Ev
	addq	$32, %rsi
	subq	$1, %rbx
	leaq	166(%rbp), %rax
	movq	%rax, %rcx
	call	_ZNSaIcEC1Ev
	leaq	166(%rbp), %rax
	movq	%rax, %r8
	leaq	.LC231(%rip), %rdx
	movq	%rsi, %rcx
.LEHB316:
	call	_ZNSt7__cxx1112basic_stringIcSt11char_traitsIcESaIcEEC1EPKcRKS3_
.LEHE316:
	leaq	166(%rbp), %rax
	movq	%rax, %rcx
	call	_ZNSaIcED1Ev
	addq	$32, %rsi
	subq	$1, %rbx
	leaq	167(%rbp), %rax
	movq	%rax, %rcx
	call	_ZNSaIcEC1Ev
	leaq	167(%rbp), %rax
	movq	%rax, %r8
	leaq	.LC44(%rip), %rdx
	movq	%rsi, %rcx
.LEHB317:
	call	_ZNSt7__cxx1112basic_stringIcSt11char_traitsIcESaIcEEC1EPKcRKS3_
.LEHE317:
	leaq	167(%rbp), %rax
	movq	%rax, %rcx
	call	_ZNSaIcED1Ev
	addq	$32, %rsi
	subq	$1, %rbx
	leaq	168(%rbp), %rax
	movq	%rax, %rcx
	call	_ZNSaIcEC1Ev
	leaq	168(%rbp), %rax
	movq	%rax, %r8
	leaq	.LC227(%rip), %rdx
	movq	%rsi, %rcx
.LEHB318:
	call	_ZNSt7__cxx1112basic_stringIcSt11char_traitsIcESaIcEEC1EPKcRKS3_
.LEHE318:
	leaq	168(%rbp), %rax
	movq	%rax, %rcx
	call	_ZNSaIcED1Ev
	addq	$32, %rsi
	subq	$1, %rbx
	leaq	169(%rbp), %rax
	movq	%rax, %rcx
	call	_ZNSaIcEC1Ev
	leaq	169(%rbp), %rax
	movq	%rax, %r8
	leaq	.LC73(%rip), %rdx
	movq	%rsi, %rcx
.LEHB319:
	call	_ZNSt7__cxx1112basic_stringIcSt11char_traitsIcESaIcEEC1EPKcRKS3_
.LEHE319:
	leaq	169(%rbp), %rax
	movq	%rax, %rcx
	call	_ZNSaIcED1Ev
	addq	$32, %rsi
	subq	$1, %rbx
	leaq	170(%rbp), %rax
	movq	%rax, %rcx
	call	_ZNSaIcEC1Ev
	leaq	170(%rbp), %rax
	movq	%rax, %r8
	leaq	.LC62(%rip), %rdx
	movq	%rsi, %rcx
.LEHB320:
	call	_ZNSt7__cxx1112basic_stringIcSt11char_traitsIcESaIcEEC1EPKcRKS3_
.LEHE320:
	leaq	170(%rbp), %rax
	movq	%rax, %rcx
	call	_ZNSaIcED1Ev
	addq	$32, %rsi
	subq	$1, %rbx
	leaq	171(%rbp), %rax
	movq	%rax, %rcx
	call	_ZNSaIcEC1Ev
	leaq	171(%rbp), %rax
	movq	%rax, %r8
	leaq	.LC232(%rip), %rdx
	movq	%rsi, %rcx
.LEHB321:
	call	_ZNSt7__cxx1112basic_stringIcSt11char_traitsIcESaIcEEC1EPKcRKS3_
.LEHE321:
	leaq	171(%rbp), %rax
	movq	%rax, %rcx
	call	_ZNSaIcED1Ev
	addq	$32, %rsi
	subq	$1, %rbx
	leaq	172(%rbp), %rax
	movq	%rax, %rcx
	call	_ZNSaIcEC1Ev
	leaq	172(%rbp), %rax
	movq	%rax, %r8
	leaq	.LC233(%rip), %rdx
	movq	%rsi, %rcx
.LEHB322:
	call	_ZNSt7__cxx1112basic_stringIcSt11char_traitsIcESaIcEEC1EPKcRKS3_
.LEHE322:
	leaq	172(%rbp), %rax
	movq	%rax, %rcx
	call	_ZNSaIcED1Ev
	addq	$32, %rsi
	subq	$1, %rbx
	leaq	173(%rbp), %rax
	movq	%rax, %rcx
	call	_ZNSaIcEC1Ev
	leaq	173(%rbp), %rax
	movq	%rax, %r8
	leaq	.LC173(%rip), %rdx
	movq	%rsi, %rcx
.LEHB323:
	call	_ZNSt7__cxx1112basic_stringIcSt11char_traitsIcESaIcEEC1EPKcRKS3_
.LEHE323:
	leaq	173(%rbp), %rax
	movq	%rax, %rcx
	call	_ZNSaIcED1Ev
	addq	$32, %rsi
	subq	$1, %rbx
	leaq	174(%rbp), %rax
	movq	%rax, %rcx
	call	_ZNSaIcEC1Ev
	leaq	174(%rbp), %rax
	movq	%rax, %r8
	leaq	.LC234(%rip), %rdx
	movq	%rsi, %rcx
.LEHB324:
	call	_ZNSt7__cxx1112basic_stringIcSt11char_traitsIcESaIcEEC1EPKcRKS3_
.LEHE324:
	leaq	174(%rbp), %rax
	movq	%rax, %rcx
	call	_ZNSaIcED1Ev
	addq	$32, %rsi
	subq	$1, %rbx
	leaq	175(%rbp), %rax
	movq	%rax, %rcx
	call	_ZNSaIcEC1Ev
	leaq	175(%rbp), %rax
	movq	%rax, %r8
	leaq	.LC47(%rip), %rdx
	movq	%rsi, %rcx
.LEHB325:
	call	_ZNSt7__cxx1112basic_stringIcSt11char_traitsIcESaIcEEC1EPKcRKS3_
.LEHE325:
	leaq	175(%rbp), %rax
	movq	%rax, %rcx
	call	_ZNSaIcED1Ev
	addq	$32, %rsi
	subq	$1, %rbx
	leaq	176(%rbp), %rax
	movq	%rax, %rcx
	call	_ZNSaIcEC1Ev
	leaq	176(%rbp), %rax
	movq	%rax, %r8
	leaq	.LC235(%rip), %rdx
	movq	%rsi, %rcx
.LEHB326:
	call	_ZNSt7__cxx1112basic_stringIcSt11char_traitsIcESaIcEEC1EPKcRKS3_
.LEHE326:
	leaq	176(%rbp), %rax
	movq	%rax, %rcx
	call	_ZNSaIcED1Ev
	addq	$32, %rsi
	subq	$1, %rbx
	leaq	177(%rbp), %rax
	movq	%rax, %rcx
	call	_ZNSaIcEC1Ev
	leaq	177(%rbp), %rax
	movq	%rax, %r8
	leaq	.LC97(%rip), %rdx
	movq	%rsi, %rcx
.LEHB327:
	call	_ZNSt7__cxx1112basic_stringIcSt11char_traitsIcESaIcEEC1EPKcRKS3_
.LEHE327:
	leaq	177(%rbp), %rax
	movq	%rax, %rcx
	call	_ZNSaIcED1Ev
	addq	$32, %rsi
	subq	$1, %rbx
	leaq	178(%rbp), %rax
	movq	%rax, %rcx
	call	_ZNSaIcEC1Ev
	leaq	178(%rbp), %rax
	movq	%rax, %r8
	leaq	.LC236(%rip), %rdx
	movq	%rsi, %rcx
.LEHB328:
	call	_ZNSt7__cxx1112basic_stringIcSt11char_traitsIcESaIcEEC1EPKcRKS3_
.LEHE328:
	leaq	178(%rbp), %rax
	movq	%rax, %rcx
	call	_ZNSaIcED1Ev
	addq	$32, %rsi
	subq	$1, %rbx
	leaq	179(%rbp), %rax
	movq	%rax, %rcx
	call	_ZNSaIcEC1Ev
	leaq	179(%rbp), %rax
	movq	%rax, %r8
	leaq	.LC237(%rip), %rdx
	movq	%rsi, %rcx
.LEHB329:
	call	_ZNSt7__cxx1112basic_stringIcSt11char_traitsIcESaIcEEC1EPKcRKS3_
.LEHE329:
	leaq	179(%rbp), %rax
	movq	%rax, %rcx
	call	_ZNSaIcED1Ev
	addq	$32, %rsi
	subq	$1, %rbx
	leaq	180(%rbp), %rax
	movq	%rax, %rcx
	call	_ZNSaIcEC1Ev
	leaq	180(%rbp), %rax
	movq	%rax, %r8
	leaq	.LC238(%rip), %rdx
	movq	%rsi, %rcx
.LEHB330:
	call	_ZNSt7__cxx1112basic_stringIcSt11char_traitsIcESaIcEEC1EPKcRKS3_
.LEHE330:
	leaq	180(%rbp), %rax
	movq	%rax, %rcx
	call	_ZNSaIcED1Ev
	addq	$32, %rsi
	subq	$1, %rbx
	leaq	181(%rbp), %rax
	movq	%rax, %rcx
	call	_ZNSaIcEC1Ev
	leaq	181(%rbp), %rax
	movq	%rax, %r8
	leaq	.LC239(%rip), %rdx
	movq	%rsi, %rcx
.LEHB331:
	call	_ZNSt7__cxx1112basic_stringIcSt11char_traitsIcESaIcEEC1EPKcRKS3_
.LEHE331:
	leaq	181(%rbp), %rax
	movq	%rax, %rcx
	call	_ZNSaIcED1Ev
	addq	$32, %rsi
	subq	$1, %rbx
	leaq	182(%rbp), %rax
	movq	%rax, %rcx
	call	_ZNSaIcEC1Ev
	leaq	182(%rbp), %rax
	movq	%rax, %r8
	leaq	.LC115(%rip), %rdx
	movq	%rsi, %rcx
.LEHB332:
	call	_ZNSt7__cxx1112basic_stringIcSt11char_traitsIcESaIcEEC1EPKcRKS3_
.LEHE332:
	leaq	182(%rbp), %rax
	movq	%rax, %rcx
	call	_ZNSaIcED1Ev
	addq	$32, %rsi
	subq	$1, %rbx
	leaq	183(%rbp), %rax
	movq	%rax, %rcx
	call	_ZNSaIcEC1Ev
	leaq	183(%rbp), %rax
	movq	%rax, %r8
	leaq	.LC104(%rip), %rdx
	movq	%rsi, %rcx
.LEHB333:
	call	_ZNSt7__cxx1112basic_stringIcSt11char_traitsIcESaIcEEC1EPKcRKS3_
.LEHE333:
	leaq	183(%rbp), %rax
	movq	%rax, %rcx
	call	_ZNSaIcED1Ev
	addq	$32, %rsi
	subq	$1, %rbx
	leaq	184(%rbp), %rax
	movq	%rax, %rcx
	call	_ZNSaIcEC1Ev
	leaq	184(%rbp), %rax
	movq	%rax, %r8
	leaq	.LC240(%rip), %rdx
	movq	%rsi, %rcx
.LEHB334:
	call	_ZNSt7__cxx1112basic_stringIcSt11char_traitsIcESaIcEEC1EPKcRKS3_
.LEHE334:
	leaq	184(%rbp), %rax
	movq	%rax, %rcx
	call	_ZNSaIcED1Ev
	addq	$32, %rsi
	subq	$1, %rbx
	leaq	185(%rbp), %rax
	movq	%rax, %rcx
	call	_ZNSaIcEC1Ev
	leaq	185(%rbp), %rax
	movq	%rax, %r8
	leaq	.LC241(%rip), %rdx
	movq	%rsi, %rcx
.LEHB335:
	call	_ZNSt7__cxx1112basic_stringIcSt11char_traitsIcESaIcEEC1EPKcRKS3_
.LEHE335:
	leaq	185(%rbp), %rax
	movq	%rax, %rcx
	call	_ZNSaIcED1Ev
	addq	$32, %rsi
	subq	$1, %rbx
	leaq	186(%rbp), %rax
	movq	%rax, %rcx
	call	_ZNSaIcEC1Ev
	leaq	186(%rbp), %rax
	movq	%rax, %r8
	leaq	.LC62(%rip), %rdx
	movq	%rsi, %rcx
.LEHB336:
	call	_ZNSt7__cxx1112basic_stringIcSt11char_traitsIcESaIcEEC1EPKcRKS3_
.LEHE336:
	leaq	186(%rbp), %rax
	movq	%rax, %rcx
	call	_ZNSaIcED1Ev
	addq	$32, %rsi
	subq	$1, %rbx
	leaq	187(%rbp), %rax
	movq	%rax, %rcx
	call	_ZNSaIcEC1Ev
	leaq	187(%rbp), %rax
	movq	%rax, %r8
	leaq	.LC242(%rip), %rdx
	movq	%rsi, %rcx
.LEHB337:
	call	_ZNSt7__cxx1112basic_stringIcSt11char_traitsIcESaIcEEC1EPKcRKS3_
.LEHE337:
	leaq	187(%rbp), %rax
	movq	%rax, %rcx
	call	_ZNSaIcED1Ev
	addq	$32, %rsi
	subq	$1, %rbx
	leaq	188(%rbp), %rax
	movq	%rax, %rcx
	call	_ZNSaIcEC1Ev
	leaq	188(%rbp), %rax
	movq	%rax, %r8
	leaq	.LC243(%rip), %rdx
	movq	%rsi, %rcx
.LEHB338:
	call	_ZNSt7__cxx1112basic_stringIcSt11char_traitsIcESaIcEEC1EPKcRKS3_
.LEHE338:
	leaq	188(%rbp), %rax
	movq	%rax, %rcx
	call	_ZNSaIcED1Ev
	addq	$32, %rsi
	subq	$1, %rbx
	leaq	189(%rbp), %rax
	movq	%rax, %rcx
	call	_ZNSaIcEC1Ev
	leaq	189(%rbp), %rax
	movq	%rax, %r8
	leaq	.LC244(%rip), %rdx
	movq	%rsi, %rcx
.LEHB339:
	call	_ZNSt7__cxx1112basic_stringIcSt11char_traitsIcESaIcEEC1EPKcRKS3_
.LEHE339:
	leaq	189(%rbp), %rax
	movq	%rax, %rcx
	call	_ZNSaIcED1Ev
	addq	$32, %rsi
	subq	$1, %rbx
	leaq	190(%rbp), %rax
	movq	%rax, %rcx
	call	_ZNSaIcEC1Ev
	leaq	190(%rbp), %rax
	movq	%rax, %r8
	leaq	.LC245(%rip), %rdx
	movq	%rsi, %rcx
.LEHB340:
	call	_ZNSt7__cxx1112basic_stringIcSt11char_traitsIcESaIcEEC1EPKcRKS3_
.LEHE340:
	leaq	190(%rbp), %rax
	movq	%rax, %rcx
	call	_ZNSaIcED1Ev
	addq	$32, %rsi
	subq	$1, %rbx
	leaq	191(%rbp), %rax
	movq	%rax, %rcx
	call	_ZNSaIcEC1Ev
	leaq	191(%rbp), %rax
	movq	%rax, %r8
	leaq	.LC246(%rip), %rdx
	movq	%rsi, %rcx
.LEHB341:
	call	_ZNSt7__cxx1112basic_stringIcSt11char_traitsIcESaIcEEC1EPKcRKS3_
.LEHE341:
	leaq	191(%rbp), %rax
	movq	%rax, %rcx
	call	_ZNSaIcED1Ev
	addq	$32, %rsi
	subq	$1, %rbx
	leaq	192(%rbp), %rax
	movq	%rax, %rcx
	call	_ZNSaIcEC1Ev
	leaq	192(%rbp), %rax
	movq	%rax, %r8
	leaq	.LC247(%rip), %rdx
	movq	%rsi, %rcx
.LEHB342:
	call	_ZNSt7__cxx1112basic_stringIcSt11char_traitsIcESaIcEEC1EPKcRKS3_
.LEHE342:
	leaq	192(%rbp), %rax
	movq	%rax, %rcx
	call	_ZNSaIcED1Ev
	addq	$32, %rsi
	subq	$1, %rbx
	leaq	193(%rbp), %rax
	movq	%rax, %rcx
	call	_ZNSaIcEC1Ev
	leaq	193(%rbp), %rax
	movq	%rax, %r8
	leaq	.LC248(%rip), %rdx
	movq	%rsi, %rcx
.LEHB343:
	call	_ZNSt7__cxx1112basic_stringIcSt11char_traitsIcESaIcEEC1EPKcRKS3_
.LEHE343:
	leaq	193(%rbp), %rax
	movq	%rax, %rcx
	call	_ZNSaIcED1Ev
	addq	$32, %rsi
	subq	$1, %rbx
	leaq	194(%rbp), %rax
	movq	%rax, %rcx
	call	_ZNSaIcEC1Ev
	leaq	194(%rbp), %rax
	movq	%rax, %r8
	leaq	.LC249(%rip), %rdx
	movq	%rsi, %rcx
.LEHB344:
	call	_ZNSt7__cxx1112basic_stringIcSt11char_traitsIcESaIcEEC1EPKcRKS3_
.LEHE344:
	leaq	194(%rbp), %rax
	movq	%rax, %rcx
	call	_ZNSaIcED1Ev
	addq	$32, %rsi
	subq	$1, %rbx
	leaq	195(%rbp), %rax
	movq	%rax, %rcx
	call	_ZNSaIcEC1Ev
	leaq	195(%rbp), %rax
	movq	%rax, %r8
	leaq	.LC85(%rip), %rdx
	movq	%rsi, %rcx
.LEHB345:
	call	_ZNSt7__cxx1112basic_stringIcSt11char_traitsIcESaIcEEC1EPKcRKS3_
.LEHE345:
	leaq	195(%rbp), %rax
	movq	%rax, %rcx
	call	_ZNSaIcED1Ev
	addq	$32, %rsi
	subq	$1, %rbx
	leaq	196(%rbp), %rax
	movq	%rax, %rcx
	call	_ZNSaIcEC1Ev
	leaq	196(%rbp), %rax
	movq	%rax, %r8
	leaq	.LC250(%rip), %rdx
	movq	%rsi, %rcx
.LEHB346:
	call	_ZNSt7__cxx1112basic_stringIcSt11char_traitsIcESaIcEEC1EPKcRKS3_
.LEHE346:
	leaq	196(%rbp), %rax
	movq	%rax, %rcx
	call	_ZNSaIcED1Ev
	addq	$32, %rsi
	subq	$1, %rbx
	leaq	197(%rbp), %rax
	movq	%rax, %rcx
	call	_ZNSaIcEC1Ev
	leaq	197(%rbp), %rax
	movq	%rax, %r8
	leaq	.LC251(%rip), %rdx
	movq	%rsi, %rcx
.LEHB347:
	call	_ZNSt7__cxx1112basic_stringIcSt11char_traitsIcESaIcEEC1EPKcRKS3_
.LEHE347:
	leaq	197(%rbp), %rax
	movq	%rax, %rcx
	call	_ZNSaIcED1Ev
	addq	$32, %rsi
	subq	$1, %rbx
	leaq	198(%rbp), %rax
	movq	%rax, %rcx
	call	_ZNSaIcEC1Ev
	leaq	198(%rbp), %rax
	movq	%rax, %r8
	leaq	.LC44(%rip), %rdx
	movq	%rsi, %rcx
.LEHB348:
	call	_ZNSt7__cxx1112basic_stringIcSt11char_traitsIcESaIcEEC1EPKcRKS3_
.LEHE348:
	leaq	198(%rbp), %rax
	movq	%rax, %rcx
	call	_ZNSaIcED1Ev
	addq	$32, %rsi
	subq	$1, %rbx
	leaq	199(%rbp), %rax
	movq	%rax, %rcx
	call	_ZNSaIcEC1Ev
	leaq	199(%rbp), %rax
	movq	%rax, %r8
	leaq	.LC252(%rip), %rdx
	movq	%rsi, %rcx
.LEHB349:
	call	_ZNSt7__cxx1112basic_stringIcSt11char_traitsIcESaIcEEC1EPKcRKS3_
.LEHE349:
	leaq	199(%rbp), %rax
	movq	%rax, %rcx
	call	_ZNSaIcED1Ev
	addq	$32, %rsi
	subq	$1, %rbx
	leaq	200(%rbp), %rax
	movq	%rax, %rcx
	call	_ZNSaIcEC1Ev
	leaq	200(%rbp), %rax
	movq	%rax, %r8
	leaq	.LC253(%rip), %rdx
	movq	%rsi, %rcx
.LEHB350:
	call	_ZNSt7__cxx1112basic_stringIcSt11char_traitsIcESaIcEEC1EPKcRKS3_
.LEHE350:
	leaq	200(%rbp), %rax
	movq	%rax, %rcx
	call	_ZNSaIcED1Ev
	addq	$32, %rsi
	subq	$1, %rbx
	leaq	201(%rbp), %rax
	movq	%rax, %rcx
	call	_ZNSaIcEC1Ev
	leaq	201(%rbp), %rax
	movq	%rax, %r8
	leaq	.LC254(%rip), %rdx
	movq	%rsi, %rcx
.LEHB351:
	call	_ZNSt7__cxx1112basic_stringIcSt11char_traitsIcESaIcEEC1EPKcRKS3_
.LEHE351:
	leaq	201(%rbp), %rax
	movq	%rax, %rcx
	call	_ZNSaIcED1Ev
	addq	$32, %rsi
	subq	$1, %rbx
	leaq	202(%rbp), %rax
	movq	%rax, %rcx
	call	_ZNSaIcEC1Ev
	leaq	202(%rbp), %rax
	movq	%rax, %r8
	leaq	.LC255(%rip), %rdx
	movq	%rsi, %rcx
.LEHB352:
	call	_ZNSt7__cxx1112basic_stringIcSt11char_traitsIcESaIcEEC1EPKcRKS3_
.LEHE352:
	leaq	202(%rbp), %rax
	movq	%rax, %rcx
	call	_ZNSaIcED1Ev
	addq	$32, %rsi
	subq	$1, %rbx
	leaq	203(%rbp), %rax
	movq	%rax, %rcx
	call	_ZNSaIcEC1Ev
	leaq	203(%rbp), %rax
	movq	%rax, %r8
	leaq	.LC241(%rip), %rdx
	movq	%rsi, %rcx
.LEHB353:
	call	_ZNSt7__cxx1112basic_stringIcSt11char_traitsIcESaIcEEC1EPKcRKS3_
.LEHE353:
	leaq	203(%rbp), %rax
	movq	%rax, %rcx
	call	_ZNSaIcED1Ev
	addq	$32, %rsi
	subq	$1, %rbx
	leaq	204(%rbp), %rax
	movq	%rax, %rcx
	call	_ZNSaIcEC1Ev
	leaq	204(%rbp), %rax
	movq	%rax, %r8
	leaq	.LC256(%rip), %rdx
	movq	%rsi, %rcx
.LEHB354:
	call	_ZNSt7__cxx1112basic_stringIcSt11char_traitsIcESaIcEEC1EPKcRKS3_
.LEHE354:
	leaq	204(%rbp), %rax
	movq	%rax, %rcx
	call	_ZNSaIcED1Ev
	addq	$32, %rsi
	subq	$1, %rbx
	leaq	205(%rbp), %rax
	movq	%rax, %rcx
	call	_ZNSaIcEC1Ev
	leaq	205(%rbp), %rax
	movq	%rax, %r8
	leaq	.LC257(%rip), %rdx
	movq	%rsi, %rcx
.LEHB355:
	call	_ZNSt7__cxx1112basic_stringIcSt11char_traitsIcESaIcEEC1EPKcRKS3_
.LEHE355:
	leaq	205(%rbp), %rax
	movq	%rax, %rcx
	call	_ZNSaIcED1Ev
	addq	$32, %rsi
	subq	$1, %rbx
	leaq	206(%rbp), %rax
	movq	%rax, %rcx
	call	_ZNSaIcEC1Ev
	leaq	206(%rbp), %rax
	movq	%rax, %r8
	leaq	.LC258(%rip), %rdx
	movq	%rsi, %rcx
.LEHB356:
	call	_ZNSt7__cxx1112basic_stringIcSt11char_traitsIcESaIcEEC1EPKcRKS3_
.LEHE356:
	leaq	206(%rbp), %rax
	movq	%rax, %rcx
	call	_ZNSaIcED1Ev
	addq	$32, %rsi
	subq	$1, %rbx
	leaq	207(%rbp), %rax
	movq	%rax, %rcx
	call	_ZNSaIcEC1Ev
	leaq	207(%rbp), %rax
	movq	%rax, %r8
	leaq	.LC212(%rip), %rdx
	movq	%rsi, %rcx
.LEHB357:
	call	_ZNSt7__cxx1112basic_stringIcSt11char_traitsIcESaIcEEC1EPKcRKS3_
.LEHE357:
	leaq	207(%rbp), %rax
	movq	%rax, %rcx
	call	_ZNSaIcED1Ev
	addq	$32, %rsi
	subq	$1, %rbx
	leaq	208(%rbp), %rax
	movq	%rax, %rcx
	call	_ZNSaIcEC1Ev
	leaq	208(%rbp), %rax
	movq	%rax, %r8
	leaq	.LC213(%rip), %rdx
	movq	%rsi, %rcx
.LEHB358:
	call	_ZNSt7__cxx1112basic_stringIcSt11char_traitsIcESaIcEEC1EPKcRKS3_
.LEHE358:
	leaq	208(%rbp), %rax
	movq	%rax, %rcx
	call	_ZNSaIcED1Ev
	addq	$32, %rsi
	subq	$1, %rbx
	leaq	209(%rbp), %rax
	movq	%rax, %rcx
	call	_ZNSaIcEC1Ev
	leaq	209(%rbp), %rax
	movq	%rax, %r8
	leaq	.LC259(%rip), %rdx
	movq	%rsi, %rcx
.LEHB359:
	call	_ZNSt7__cxx1112basic_stringIcSt11char_traitsIcESaIcEEC1EPKcRKS3_
.LEHE359:
	leaq	209(%rbp), %rax
	movq	%rax, %rcx
	call	_ZNSaIcED1Ev
	addq	$32, %rsi
	subq	$1, %rbx
	leaq	210(%rbp), %rax
	movq	%rax, %rcx
	call	_ZNSaIcEC1Ev
	leaq	210(%rbp), %rax
	movq	%rax, %r8
	leaq	.LC260(%rip), %rdx
	movq	%rsi, %rcx
.LEHB360:
	call	_ZNSt7__cxx1112basic_stringIcSt11char_traitsIcESaIcEEC1EPKcRKS3_
.LEHE360:
	leaq	210(%rbp), %rax
	movq	%rax, %rcx
	call	_ZNSaIcED1Ev
	addq	$32, %rsi
	subq	$1, %rbx
	leaq	211(%rbp), %rax
	movq	%rax, %rcx
	call	_ZNSaIcEC1Ev
	leaq	211(%rbp), %rax
	movq	%rax, %r8
	leaq	.LC261(%rip), %rdx
	movq	%rsi, %rcx
.LEHB361:
	call	_ZNSt7__cxx1112basic_stringIcSt11char_traitsIcESaIcEEC1EPKcRKS3_
.LEHE361:
	leaq	211(%rbp), %rax
	movq	%rax, %rcx
	call	_ZNSaIcED1Ev
	addq	$32, %rsi
	subq	$1, %rbx
	leaq	212(%rbp), %rax
	movq	%rax, %rcx
	call	_ZNSaIcEC1Ev
	leaq	212(%rbp), %rax
	movq	%rax, %r8
	leaq	.LC44(%rip), %rdx
	movq	%rsi, %rcx
.LEHB362:
	call	_ZNSt7__cxx1112basic_stringIcSt11char_traitsIcESaIcEEC1EPKcRKS3_
.LEHE362:
	leaq	212(%rbp), %rax
	movq	%rax, %rcx
	call	_ZNSaIcED1Ev
	addq	$32, %rsi
	subq	$1, %rbx
	leaq	213(%rbp), %rax
	movq	%rax, %rcx
	call	_ZNSaIcEC1Ev
	leaq	213(%rbp), %rax
	movq	%rax, %r8
	leaq	.LC262(%rip), %rdx
	movq	%rsi, %rcx
.LEHB363:
	call	_ZNSt7__cxx1112basic_stringIcSt11char_traitsIcESaIcEEC1EPKcRKS3_
.LEHE363:
	leaq	213(%rbp), %rax
	movq	%rax, %rcx
	call	_ZNSaIcED1Ev
	addq	$32, %rsi
	subq	$1, %rbx
	leaq	214(%rbp), %rax
	movq	%rax, %rcx
	call	_ZNSaIcEC1Ev
	leaq	214(%rbp), %rax
	movq	%rax, %r8
	leaq	.LC263(%rip), %rdx
	movq	%rsi, %rcx
.LEHB364:
	call	_ZNSt7__cxx1112basic_stringIcSt11char_traitsIcESaIcEEC1EPKcRKS3_
.LEHE364:
	leaq	214(%rbp), %rax
	movq	%rax, %rcx
	call	_ZNSaIcED1Ev
	addq	$32, %rsi
	subq	$1, %rbx
	leaq	215(%rbp), %rax
	movq	%rax, %rcx
	call	_ZNSaIcEC1Ev
	leaq	215(%rbp), %rax
	movq	%rax, %r8
	leaq	.LC264(%rip), %rdx
	movq	%rsi, %rcx
.LEHB365:
	call	_ZNSt7__cxx1112basic_stringIcSt11char_traitsIcESaIcEEC1EPKcRKS3_
.LEHE365:
	leaq	215(%rbp), %rax
	movq	%rax, %rcx
	call	_ZNSaIcED1Ev
	addq	$32, %rsi
	subq	$1, %rbx
	leaq	216(%rbp), %rax
	movq	%rax, %rcx
	call	_ZNSaIcEC1Ev
	leaq	216(%rbp), %rax
	movq	%rax, %r8
	leaq	.LC265(%rip), %rdx
	movq	%rsi, %rcx
.LEHB366:
	call	_ZNSt7__cxx1112basic_stringIcSt11char_traitsIcESaIcEEC1EPKcRKS3_
.LEHE366:
	leaq	216(%rbp), %rax
	movq	%rax, %rcx
	call	_ZNSaIcED1Ev
	addq	$32, %rsi
	subq	$1, %rbx
	leaq	217(%rbp), %rax
	movq	%rax, %rcx
	call	_ZNSaIcEC1Ev
	leaq	217(%rbp), %rax
	movq	%rax, %r8
	leaq	.LC266(%rip), %rdx
	movq	%rsi, %rcx
.LEHB367:
	call	_ZNSt7__cxx1112basic_stringIcSt11char_traitsIcESaIcEEC1EPKcRKS3_
.LEHE367:
	leaq	217(%rbp), %rax
	movq	%rax, %rcx
	call	_ZNSaIcED1Ev
	addq	$32, %rsi
	subq	$1, %rbx
	leaq	218(%rbp), %rax
	movq	%rax, %rcx
	call	_ZNSaIcEC1Ev
	leaq	218(%rbp), %rax
	movq	%rax, %r8
	leaq	.LC43(%rip), %rdx
	movq	%rsi, %rcx
.LEHB368:
	call	_ZNSt7__cxx1112basic_stringIcSt11char_traitsIcESaIcEEC1EPKcRKS3_
.LEHE368:
	leaq	218(%rbp), %rax
	movq	%rax, %rcx
	call	_ZNSaIcED1Ev
	addq	$32, %rsi
	subq	$1, %rbx
	leaq	219(%rbp), %rax
	movq	%rax, %rcx
	call	_ZNSaIcEC1Ev
	leaq	219(%rbp), %rax
	movq	%rax, %r8
	leaq	.LC267(%rip), %rdx
	movq	%rsi, %rcx
.LEHB369:
	call	_ZNSt7__cxx1112basic_stringIcSt11char_traitsIcESaIcEEC1EPKcRKS3_
.LEHE369:
	leaq	219(%rbp), %rax
	movq	%rax, %rcx
	call	_ZNSaIcED1Ev
	addq	$32, %rsi
	subq	$1, %rbx
	leaq	220(%rbp), %rax
	movq	%rax, %rcx
	call	_ZNSaIcEC1Ev
	leaq	220(%rbp), %rax
	movq	%rax, %r8
	leaq	.LC268(%rip), %rdx
	movq	%rsi, %rcx
.LEHB370:
	call	_ZNSt7__cxx1112basic_stringIcSt11char_traitsIcESaIcEEC1EPKcRKS3_
.LEHE370:
	leaq	220(%rbp), %rax
	movq	%rax, %rcx
	call	_ZNSaIcED1Ev
	addq	$32, %rsi
	subq	$1, %rbx
	leaq	221(%rbp), %rax
	movq	%rax, %rcx
	call	_ZNSaIcEC1Ev
	leaq	221(%rbp), %rax
	movq	%rax, %r8
	leaq	.LC269(%rip), %rdx
	movq	%rsi, %rcx
.LEHB371:
	call	_ZNSt7__cxx1112basic_stringIcSt11char_traitsIcESaIcEEC1EPKcRKS3_
.LEHE371:
	leaq	221(%rbp), %rax
	movq	%rax, %rcx
	call	_ZNSaIcED1Ev
	addq	$32, %rsi
	subq	$1, %rbx
	leaq	222(%rbp), %rax
	movq	%rax, %rcx
	call	_ZNSaIcEC1Ev
	leaq	222(%rbp), %rax
	movq	%rax, %r8
	leaq	.LC270(%rip), %rdx
	movq	%rsi, %rcx
.LEHB372:
	call	_ZNSt7__cxx1112basic_stringIcSt11char_traitsIcESaIcEEC1EPKcRKS3_
.LEHE372:
	leaq	222(%rbp), %rax
	movq	%rax, %rcx
	call	_ZNSaIcED1Ev
	addq	$32, %rsi
	subq	$1, %rbx
	leaq	223(%rbp), %rax
	movq	%rax, %rcx
	call	_ZNSaIcEC1Ev
	leaq	223(%rbp), %rax
	movq	%rax, %r8
	leaq	.LC196(%rip), %rdx
	movq	%rsi, %rcx
.LEHB373:
	call	_ZNSt7__cxx1112basic_stringIcSt11char_traitsIcESaIcEEC1EPKcRKS3_
.LEHE373:
	leaq	223(%rbp), %rax
	movq	%rax, %rcx
	call	_ZNSaIcED1Ev
	addq	$32, %rsi
	subq	$1, %rbx
	leaq	224(%rbp), %rax
	movq	%rax, %rcx
	call	_ZNSaIcEC1Ev
	leaq	224(%rbp), %rax
	movq	%rax, %r8
	leaq	.LC264(%rip), %rdx
	movq	%rsi, %rcx
.LEHB374:
	call	_ZNSt7__cxx1112basic_stringIcSt11char_traitsIcESaIcEEC1EPKcRKS3_
.LEHE374:
	leaq	224(%rbp), %rax
	movq	%rax, %rcx
	call	_ZNSaIcED1Ev
	addq	$32, %rsi
	subq	$1, %rbx
	leaq	225(%rbp), %rax
	movq	%rax, %rcx
	call	_ZNSaIcEC1Ev
	leaq	225(%rbp), %rax
	movq	%rax, %r8
	leaq	.LC271(%rip), %rdx
	movq	%rsi, %rcx
.LEHB375:
	call	_ZNSt7__cxx1112basic_stringIcSt11char_traitsIcESaIcEEC1EPKcRKS3_
.LEHE375:
	leaq	225(%rbp), %rax
	movq	%rax, %rcx
	call	_ZNSaIcED1Ev
	addq	$32, %rsi
	subq	$1, %rbx
	leaq	226(%rbp), %rax
	movq	%rax, %rcx
	call	_ZNSaIcEC1Ev
	leaq	226(%rbp), %rax
	movq	%rax, %r8
	leaq	.LC272(%rip), %rdx
	movq	%rsi, %rcx
.LEHB376:
	call	_ZNSt7__cxx1112basic_stringIcSt11char_traitsIcESaIcEEC1EPKcRKS3_
.LEHE376:
	leaq	226(%rbp), %rax
	movq	%rax, %rcx
	call	_ZNSaIcED1Ev
	addq	$32, %rsi
	subq	$1, %rbx
	leaq	227(%rbp), %rax
	movq	%rax, %rcx
	call	_ZNSaIcEC1Ev
	leaq	227(%rbp), %rax
	movq	%rax, %r8
	leaq	.LC273(%rip), %rdx
	movq	%rsi, %rcx
.LEHB377:
	call	_ZNSt7__cxx1112basic_stringIcSt11char_traitsIcESaIcEEC1EPKcRKS3_
.LEHE377:
	leaq	227(%rbp), %rax
	movq	%rax, %rcx
	call	_ZNSaIcED1Ev
	addq	$32, %rsi
	subq	$1, %rbx
	leaq	228(%rbp), %rax
	movq	%rax, %rcx
	call	_ZNSaIcEC1Ev
	leaq	228(%rbp), %rax
	movq	%rax, %r8
	leaq	.LC274(%rip), %rdx
	movq	%rsi, %rcx
.LEHB378:
	call	_ZNSt7__cxx1112basic_stringIcSt11char_traitsIcESaIcEEC1EPKcRKS3_
.LEHE378:
	leaq	228(%rbp), %rax
	movq	%rax, %rcx
	call	_ZNSaIcED1Ev
	addq	$32, %rsi
	subq	$1, %rbx
	leaq	229(%rbp), %rax
	movq	%rax, %rcx
	call	_ZNSaIcEC1Ev
	leaq	229(%rbp), %rax
	movq	%rax, %r8
	leaq	.LC80(%rip), %rdx
	movq	%rsi, %rcx
.LEHB379:
	call	_ZNSt7__cxx1112basic_stringIcSt11char_traitsIcESaIcEEC1EPKcRKS3_
.LEHE379:
	leaq	229(%rbp), %rax
	movq	%rax, %rcx
	call	_ZNSaIcED1Ev
	addq	$32, %rsi
	subq	$1, %rbx
	leaq	230(%rbp), %rax
	movq	%rax, %rcx
	call	_ZNSaIcEC1Ev
	leaq	230(%rbp), %rax
	movq	%rax, %r8
	leaq	.LC73(%rip), %rdx
	movq	%rsi, %rcx
.LEHB380:
	call	_ZNSt7__cxx1112basic_stringIcSt11char_traitsIcESaIcEEC1EPKcRKS3_
.LEHE380:
	leaq	230(%rbp), %rax
	movq	%rax, %rcx
	call	_ZNSaIcED1Ev
	addq	$32, %rsi
	subq	$1, %rbx
	leaq	231(%rbp), %rax
	movq	%rax, %rcx
	call	_ZNSaIcEC1Ev
	leaq	231(%rbp), %rax
	movq	%rax, %r8
	leaq	.LC275(%rip), %rdx
	movq	%rsi, %rcx
.LEHB381:
	call	_ZNSt7__cxx1112basic_stringIcSt11char_traitsIcESaIcEEC1EPKcRKS3_
.LEHE381:
	leaq	231(%rbp), %rax
	movq	%rax, %rcx
	call	_ZNSaIcED1Ev
	addq	$32, %rsi
	subq	$1, %rbx
	leaq	232(%rbp), %rax
	movq	%rax, %rcx
	call	_ZNSaIcEC1Ev
	leaq	232(%rbp), %rax
	movq	%rax, %r8
	leaq	.LC80(%rip), %rdx
	movq	%rsi, %rcx
.LEHB382:
	call	_ZNSt7__cxx1112basic_stringIcSt11char_traitsIcESaIcEEC1EPKcRKS3_
.LEHE382:
	leaq	232(%rbp), %rax
	movq	%rax, %rcx
	call	_ZNSaIcED1Ev
	addq	$32, %rsi
	subq	$1, %rbx
	leaq	233(%rbp), %rax
	movq	%rax, %rcx
	call	_ZNSaIcEC1Ev
	leaq	233(%rbp), %rax
	movq	%rax, %r8
	leaq	.LC73(%rip), %rdx
	movq	%rsi, %rcx
.LEHB383:
	call	_ZNSt7__cxx1112basic_stringIcSt11char_traitsIcESaIcEEC1EPKcRKS3_
.LEHE383:
	leaq	233(%rbp), %rax
	movq	%rax, %rcx
	call	_ZNSaIcED1Ev
	addq	$32, %rsi
	subq	$1, %rbx
	leaq	234(%rbp), %rax
	movq	%rax, %rcx
	call	_ZNSaIcEC1Ev
	leaq	234(%rbp), %rax
	movq	%rax, %r8
	leaq	.LC276(%rip), %rdx
	movq	%rsi, %rcx
.LEHB384:
	call	_ZNSt7__cxx1112basic_stringIcSt11char_traitsIcESaIcEEC1EPKcRKS3_
.LEHE384:
	leaq	234(%rbp), %rax
	movq	%rax, %rcx
	call	_ZNSaIcED1Ev
	addq	$32, %rsi
	subq	$1, %rbx
	leaq	235(%rbp), %rax
	movq	%rax, %rcx
	call	_ZNSaIcEC1Ev
	leaq	235(%rbp), %rax
	movq	%rax, %r8
	leaq	.LC277(%rip), %rdx
	movq	%rsi, %rcx
.LEHB385:
	call	_ZNSt7__cxx1112basic_stringIcSt11char_traitsIcESaIcEEC1EPKcRKS3_
.LEHE385:
	leaq	235(%rbp), %rax
	movq	%rax, %rcx
	call	_ZNSaIcED1Ev
	addq	$32, %rsi
	subq	$1, %rbx
	leaq	236(%rbp), %rax
	movq	%rax, %rcx
	call	_ZNSaIcEC1Ev
	leaq	236(%rbp), %rax
	movq	%rax, %r8
	leaq	.LC278(%rip), %rdx
	movq	%rsi, %rcx
.LEHB386:
	call	_ZNSt7__cxx1112basic_stringIcSt11char_traitsIcESaIcEEC1EPKcRKS3_
.LEHE386:
	leaq	236(%rbp), %rax
	movq	%rax, %rcx
	call	_ZNSaIcED1Ev
	addq	$32, %rsi
	subq	$1, %rbx
	leaq	237(%rbp), %rax
	movq	%rax, %rcx
	call	_ZNSaIcEC1Ev
	leaq	237(%rbp), %rax
	movq	%rax, %r8
	leaq	.LC80(%rip), %rdx
	movq	%rsi, %rcx
.LEHB387:
	call	_ZNSt7__cxx1112basic_stringIcSt11char_traitsIcESaIcEEC1EPKcRKS3_
.LEHE387:
	leaq	237(%rbp), %rax
	movq	%rax, %rcx
	call	_ZNSaIcED1Ev
	addq	$32, %rsi
	subq	$1, %rbx
	leaq	238(%rbp), %rax
	movq	%rax, %rcx
	call	_ZNSaIcEC1Ev
	leaq	238(%rbp), %rax
	movq	%rax, %r8
	leaq	.LC279(%rip), %rdx
	movq	%rsi, %rcx
.LEHB388:
	call	_ZNSt7__cxx1112basic_stringIcSt11char_traitsIcESaIcEEC1EPKcRKS3_
.LEHE388:
	leaq	238(%rbp), %rax
	movq	%rax, %rcx
	call	_ZNSaIcED1Ev
	addq	$32, %rsi
	subq	$1, %rbx
	leaq	239(%rbp), %rax
	movq	%rax, %rcx
	call	_ZNSaIcEC1Ev
	leaq	239(%rbp), %rax
	movq	%rax, %r8
	leaq	.LC53(%rip), %rdx
	movq	%rsi, %rcx
.LEHB389:
	call	_ZNSt7__cxx1112basic_stringIcSt11char_traitsIcESaIcEEC1EPKcRKS3_
.LEHE389:
	leaq	239(%rbp), %rax
	movq	%rax, %rcx
	call	_ZNSaIcED1Ev
	addq	$32, %rsi
	subq	$1, %rbx
	leaq	240(%rbp), %rax
	movq	%rax, %rcx
	call	_ZNSaIcEC1Ev
	leaq	240(%rbp), %rax
	movq	%rax, %r8
	leaq	.LC173(%rip), %rdx
	movq	%rsi, %rcx
.LEHB390:
	call	_ZNSt7__cxx1112basic_stringIcSt11char_traitsIcESaIcEEC1EPKcRKS3_
.LEHE390:
	leaq	240(%rbp), %rax
	movq	%rax, %rcx
	call	_ZNSaIcED1Ev
	addq	$32, %rsi
	subq	$1, %rbx
	leaq	241(%rbp), %rax
	movq	%rax, %rcx
	call	_ZNSaIcEC1Ev
	leaq	241(%rbp), %rax
	movq	%rax, %r8
	leaq	.LC280(%rip), %rdx
	movq	%rsi, %rcx
.LEHB391:
	call	_ZNSt7__cxx1112basic_stringIcSt11char_traitsIcESaIcEEC1EPKcRKS3_
.LEHE391:
	leaq	241(%rbp), %rax
	movq	%rax, %rcx
	call	_ZNSaIcED1Ev
	addq	$32, %rsi
	subq	$1, %rbx
	leaq	242(%rbp), %rax
	movq	%rax, %rcx
	call	_ZNSaIcEC1Ev
	leaq	242(%rbp), %rax
	movq	%rax, %r8
	leaq	.LC173(%rip), %rdx
	movq	%rsi, %rcx
.LEHB392:
	call	_ZNSt7__cxx1112basic_stringIcSt11char_traitsIcESaIcEEC1EPKcRKS3_
.LEHE392:
	leaq	242(%rbp), %rax
	movq	%rax, %rcx
	call	_ZNSaIcED1Ev
	addq	$32, %rsi
	subq	$1, %rbx
	leaq	243(%rbp), %rax
	movq	%rax, %rcx
	call	_ZNSaIcEC1Ev
	leaq	243(%rbp), %rax
	movq	%rax, %r8
	leaq	.LC281(%rip), %rdx
	movq	%rsi, %rcx
.LEHB393:
	call	_ZNSt7__cxx1112basic_stringIcSt11char_traitsIcESaIcEEC1EPKcRKS3_
.LEHE393:
	leaq	243(%rbp), %rax
	movq	%rax, %rcx
	call	_ZNSaIcED1Ev
	addq	$32, %rsi
	subq	$1, %rbx
	leaq	244(%rbp), %rax
	movq	%rax, %rcx
	call	_ZNSaIcEC1Ev
	leaq	244(%rbp), %rax
	movq	%rax, %r8
	leaq	.LC221(%rip), %rdx
	movq	%rsi, %rcx
.LEHB394:
	call	_ZNSt7__cxx1112basic_stringIcSt11char_traitsIcESaIcEEC1EPKcRKS3_
.LEHE394:
	leaq	244(%rbp), %rax
	movq	%rax, %rcx
	call	_ZNSaIcED1Ev
	addq	$32, %rsi
	subq	$1, %rbx
	leaq	245(%rbp), %rax
	movq	%rax, %rcx
	call	_ZNSaIcEC1Ev
	leaq	245(%rbp), %rax
	movq	%rax, %r8
	leaq	.LC282(%rip), %rdx
	movq	%rsi, %rcx
.LEHB395:
	call	_ZNSt7__cxx1112basic_stringIcSt11char_traitsIcESaIcEEC1EPKcRKS3_
.LEHE395:
	leaq	245(%rbp), %rax
	movq	%rax, %rcx
	call	_ZNSaIcED1Ev
	addq	$32, %rsi
	subq	$1, %rbx
	leaq	246(%rbp), %rax
	movq	%rax, %rcx
	call	_ZNSaIcEC1Ev
	leaq	246(%rbp), %rax
	movq	%rax, %r8
	leaq	.LC283(%rip), %rdx
	movq	%rsi, %rcx
.LEHB396:
	call	_ZNSt7__cxx1112basic_stringIcSt11char_traitsIcESaIcEEC1EPKcRKS3_
.LEHE396:
	leaq	246(%rbp), %rax
	movq	%rax, %rcx
	call	_ZNSaIcED1Ev
	addq	$32, %rsi
	subq	$1, %rbx
	leaq	247(%rbp), %rax
	movq	%rax, %rcx
	call	_ZNSaIcEC1Ev
	leaq	247(%rbp), %rax
	movq	%rax, %r8
	leaq	.LC284(%rip), %rdx
	movq	%rsi, %rcx
.LEHB397:
	call	_ZNSt7__cxx1112basic_stringIcSt11char_traitsIcESaIcEEC1EPKcRKS3_
.LEHE397:
	leaq	247(%rbp), %rax
	movq	%rax, %rcx
	call	_ZNSaIcED1Ev
	addq	$32, %rsi
	subq	$1, %rbx
	leaq	248(%rbp), %rax
	movq	%rax, %rcx
	call	_ZNSaIcEC1Ev
	leaq	248(%rbp), %rax
	movq	%rax, %r8
	leaq	.LC73(%rip), %rdx
	movq	%rsi, %rcx
.LEHB398:
	call	_ZNSt7__cxx1112basic_stringIcSt11char_traitsIcESaIcEEC1EPKcRKS3_
.LEHE398:
	leaq	248(%rbp), %rax
	movq	%rax, %rcx
	call	_ZNSaIcED1Ev
	addq	$32, %rsi
	subq	$1, %rbx
	leaq	249(%rbp), %rax
	movq	%rax, %rcx
	call	_ZNSaIcEC1Ev
	leaq	249(%rbp), %rax
	movq	%rax, %r8
	leaq	.LC285(%rip), %rdx
	movq	%rsi, %rcx
.LEHB399:
	call	_ZNSt7__cxx1112basic_stringIcSt11char_traitsIcESaIcEEC1EPKcRKS3_
.LEHE399:
	leaq	249(%rbp), %rax
	movq	%rax, %rcx
	call	_ZNSaIcED1Ev
	addq	$32, %rsi
	subq	$1, %rbx
	leaq	250(%rbp), %rax
	movq	%rax, %rcx
	call	_ZNSaIcEC1Ev
	leaq	250(%rbp), %rax
	movq	%rax, %r8
	leaq	.LC286(%rip), %rdx
	movq	%rsi, %rcx
.LEHB400:
	call	_ZNSt7__cxx1112basic_stringIcSt11char_traitsIcESaIcEEC1EPKcRKS3_
.LEHE400:
	leaq	250(%rbp), %rax
	movq	%rax, %rcx
	call	_ZNSaIcED1Ev
	addq	$32, %rsi
	subq	$1, %rbx
	leaq	251(%rbp), %rax
	movq	%rax, %rcx
	call	_ZNSaIcEC1Ev
	leaq	251(%rbp), %rax
	movq	%rax, %r8
	leaq	.LC97(%rip), %rdx
	movq	%rsi, %rcx
.LEHB401:
	call	_ZNSt7__cxx1112basic_stringIcSt11char_traitsIcESaIcEEC1EPKcRKS3_
.LEHE401:
	leaq	251(%rbp), %rax
	movq	%rax, %rcx
	call	_ZNSaIcED1Ev
	addq	$32, %rsi
	subq	$1, %rbx
	leaq	252(%rbp), %rax
	movq	%rax, %rcx
	call	_ZNSaIcEC1Ev
	leaq	252(%rbp), %rax
	movq	%rax, %r8
	leaq	.LC287(%rip), %rdx
	movq	%rsi, %rcx
.LEHB402:
	call	_ZNSt7__cxx1112basic_stringIcSt11char_traitsIcESaIcEEC1EPKcRKS3_
.LEHE402:
	leaq	252(%rbp), %rax
	movq	%rax, %rcx
	call	_ZNSaIcED1Ev
	addq	$32, %rsi
	subq	$1, %rbx
	leaq	253(%rbp), %rax
	movq	%rax, %rcx
	call	_ZNSaIcEC1Ev
	leaq	253(%rbp), %rax
	movq	%rax, %r8
	leaq	.LC272(%rip), %rdx
	movq	%rsi, %rcx
.LEHB403:
	call	_ZNSt7__cxx1112basic_stringIcSt11char_traitsIcESaIcEEC1EPKcRKS3_
.LEHE403:
	leaq	253(%rbp), %rax
	movq	%rax, %rcx
	call	_ZNSaIcED1Ev
	addq	$32, %rsi
	subq	$1, %rbx
	leaq	254(%rbp), %rax
	movq	%rax, %rcx
	call	_ZNSaIcEC1Ev
	leaq	254(%rbp), %rax
	movq	%rax, %r8
	leaq	.LC115(%rip), %rdx
	movq	%rsi, %rcx
.LEHB404:
	call	_ZNSt7__cxx1112basic_stringIcSt11char_traitsIcESaIcEEC1EPKcRKS3_
.LEHE404:
	leaq	254(%rbp), %rax
	movq	%rax, %rcx
	call	_ZNSaIcED1Ev
	addq	$32, %rsi
	subq	$1, %rbx
	leaq	255(%rbp), %rax
	movq	%rax, %rcx
	call	_ZNSaIcEC1Ev
	leaq	255(%rbp), %rax
	movq	%rax, %r8
	leaq	.LC231(%rip), %rdx
	movq	%rsi, %rcx
.LEHB405:
	call	_ZNSt7__cxx1112basic_stringIcSt11char_traitsIcESaIcEEC1EPKcRKS3_
.LEHE405:
	leaq	255(%rbp), %rax
	movq	%rax, %rcx
	call	_ZNSaIcED1Ev
	addq	$32, %rsi
	subq	$1, %rbx
	leaq	256(%rbp), %rax
	movq	%rax, %rcx
	call	_ZNSaIcEC1Ev
	leaq	256(%rbp), %rax
	movq	%rax, %r8
	leaq	.LC288(%rip), %rdx
	movq	%rsi, %rcx
.LEHB406:
	call	_ZNSt7__cxx1112basic_stringIcSt11char_traitsIcESaIcEEC1EPKcRKS3_
.LEHE406:
	leaq	256(%rbp), %rax
	movq	%rax, %rcx
	call	_ZNSaIcED1Ev
	addq	$32, %rsi
	subq	$1, %rbx
	leaq	257(%rbp), %rax
	movq	%rax, %rcx
	call	_ZNSaIcEC1Ev
	leaq	257(%rbp), %rax
	movq	%rax, %r8
	leaq	.LC145(%rip), %rdx
	movq	%rsi, %rcx
.LEHB407:
	call	_ZNSt7__cxx1112basic_stringIcSt11char_traitsIcESaIcEEC1EPKcRKS3_
.LEHE407:
	leaq	257(%rbp), %rax
	movq	%rax, %rcx
	call	_ZNSaIcED1Ev
	addq	$32, %rsi
	subq	$1, %rbx
	leaq	258(%rbp), %rax
	movq	%rax, %rcx
	call	_ZNSaIcEC1Ev
	leaq	258(%rbp), %rax
	movq	%rax, %r8
	leaq	.LC201(%rip), %rdx
	movq	%rsi, %rcx
.LEHB408:
	call	_ZNSt7__cxx1112basic_stringIcSt11char_traitsIcESaIcEEC1EPKcRKS3_
.LEHE408:
	leaq	258(%rbp), %rax
	movq	%rax, %rcx
	call	_ZNSaIcED1Ev
	addq	$32, %rsi
	subq	$1, %rbx
	leaq	259(%rbp), %rax
	movq	%rax, %rcx
	call	_ZNSaIcEC1Ev
	leaq	259(%rbp), %rax
	movq	%rax, %r8
	leaq	.LC202(%rip), %rdx
	movq	%rsi, %rcx
.LEHB409:
	call	_ZNSt7__cxx1112basic_stringIcSt11char_traitsIcESaIcEEC1EPKcRKS3_
.LEHE409:
	leaq	259(%rbp), %rax
	movq	%rax, %rcx
	call	_ZNSaIcED1Ev
	addq	$32, %rsi
	subq	$1, %rbx
	leaq	260(%rbp), %rax
	movq	%rax, %rcx
	call	_ZNSaIcEC1Ev
	leaq	260(%rbp), %rax
	movq	%rax, %r8
	leaq	.LC59(%rip), %rdx
	movq	%rsi, %rcx
.LEHB410:
	call	_ZNSt7__cxx1112basic_stringIcSt11char_traitsIcESaIcEEC1EPKcRKS3_
.LEHE410:
	leaq	260(%rbp), %rax
	movq	%rax, %rcx
	call	_ZNSaIcED1Ev
	addq	$32, %rsi
	subq	$1, %rbx
	leaq	261(%rbp), %rax
	movq	%rax, %rcx
	call	_ZNSaIcEC1Ev
	leaq	261(%rbp), %rax
	movq	%rax, %r8
	leaq	.LC73(%rip), %rdx
	movq	%rsi, %rcx
.LEHB411:
	call	_ZNSt7__cxx1112basic_stringIcSt11char_traitsIcESaIcEEC1EPKcRKS3_
.LEHE411:
	leaq	261(%rbp), %rax
	movq	%rax, %rcx
	call	_ZNSaIcED1Ev
	addq	$32, %rsi
	subq	$1, %rbx
	leaq	262(%rbp), %rax
	movq	%rax, %rcx
	call	_ZNSaIcEC1Ev
	leaq	262(%rbp), %rax
	movq	%rax, %r8
	leaq	.LC101(%rip), %rdx
	movq	%rsi, %rcx
.LEHB412:
	call	_ZNSt7__cxx1112basic_stringIcSt11char_traitsIcESaIcEEC1EPKcRKS3_
.LEHE412:
	leaq	262(%rbp), %rax
	movq	%rax, %rcx
	call	_ZNSaIcED1Ev
	addq	$32, %rsi
	subq	$1, %rbx
	leaq	263(%rbp), %rax
	movq	%rax, %rcx
	call	_ZNSaIcEC1Ev
	leaq	263(%rbp), %rax
	movq	%rax, %r8
	leaq	.LC289(%rip), %rdx
	movq	%rsi, %rcx
.LEHB413:
	call	_ZNSt7__cxx1112basic_stringIcSt11char_traitsIcESaIcEEC1EPKcRKS3_
.LEHE413:
	leaq	263(%rbp), %rax
	movq	%rax, %rcx
	call	_ZNSaIcED1Ev
	addq	$32, %rsi
	subq	$1, %rbx
	leaq	264(%rbp), %rax
	movq	%rax, %rcx
	call	_ZNSaIcEC1Ev
	leaq	264(%rbp), %rax
	movq	%rax, %r8
	leaq	.LC290(%rip), %rdx
	movq	%rsi, %rcx
.LEHB414:
	call	_ZNSt7__cxx1112basic_stringIcSt11char_traitsIcESaIcEEC1EPKcRKS3_
.LEHE414:
	leaq	264(%rbp), %rax
	movq	%rax, %rcx
	call	_ZNSaIcED1Ev
	addq	$32, %rsi
	subq	$1, %rbx
	leaq	265(%rbp), %rax
	movq	%rax, %rcx
	call	_ZNSaIcEC1Ev
	leaq	265(%rbp), %rax
	movq	%rax, %r8
	leaq	.LC44(%rip), %rdx
	movq	%rsi, %rcx
.LEHB415:
	call	_ZNSt7__cxx1112basic_stringIcSt11char_traitsIcESaIcEEC1EPKcRKS3_
.LEHE415:
	leaq	265(%rbp), %rax
	movq	%rax, %rcx
	call	_ZNSaIcED1Ev
	addq	$32, %rsi
	subq	$1, %rbx
	leaq	266(%rbp), %rax
	movq	%rax, %rcx
	call	_ZNSaIcEC1Ev
	leaq	266(%rbp), %rax
	movq	%rax, %r8
	leaq	.LC291(%rip), %rdx
	movq	%rsi, %rcx
.LEHB416:
	call	_ZNSt7__cxx1112basic_stringIcSt11char_traitsIcESaIcEEC1EPKcRKS3_
.LEHE416:
	leaq	266(%rbp), %rax
	movq	%rax, %rcx
	call	_ZNSaIcED1Ev
	addq	$32, %rsi
	subq	$1, %rbx
	leaq	267(%rbp), %rax
	movq	%rax, %rcx
	call	_ZNSaIcEC1Ev
	leaq	267(%rbp), %rax
	movq	%rax, %r8
	leaq	.LC292(%rip), %rdx
	movq	%rsi, %rcx
.LEHB417:
	call	_ZNSt7__cxx1112basic_stringIcSt11char_traitsIcESaIcEEC1EPKcRKS3_
.LEHE417:
	leaq	267(%rbp), %rax
	movq	%rax, %rcx
	call	_ZNSaIcED1Ev
	addq	$32, %rsi
	subq	$1, %rbx
	leaq	268(%rbp), %rax
	movq	%rax, %rcx
	call	_ZNSaIcEC1Ev
	leaq	268(%rbp), %rax
	movq	%rax, %r8
	leaq	.LC101(%rip), %rdx
	movq	%rsi, %rcx
.LEHB418:
	call	_ZNSt7__cxx1112basic_stringIcSt11char_traitsIcESaIcEEC1EPKcRKS3_
.LEHE418:
	leaq	268(%rbp), %rax
	movq	%rax, %rcx
	call	_ZNSaIcED1Ev
	addq	$32, %rsi
	subq	$1, %rbx
	leaq	269(%rbp), %rax
	movq	%rax, %rcx
	call	_ZNSaIcEC1Ev
	leaq	269(%rbp), %rax
	movq	%rax, %r8
	leaq	.LC199(%rip), %rdx
	movq	%rsi, %rcx
.LEHB419:
	call	_ZNSt7__cxx1112basic_stringIcSt11char_traitsIcESaIcEEC1EPKcRKS3_
.LEHE419:
	leaq	269(%rbp), %rax
	movq	%rax, %rcx
	call	_ZNSaIcED1Ev
	addq	$32, %rsi
	subq	$1, %rbx
	leaq	270(%rbp), %rax
	movq	%rax, %rcx
	call	_ZNSaIcEC1Ev
	leaq	270(%rbp), %rax
	movq	%rax, %r8
	leaq	.LC244(%rip), %rdx
	movq	%rsi, %rcx
.LEHB420:
	call	_ZNSt7__cxx1112basic_stringIcSt11char_traitsIcESaIcEEC1EPKcRKS3_
.LEHE420:
	leaq	270(%rbp), %rax
	movq	%rax, %rcx
	call	_ZNSaIcED1Ev
	addq	$32, %rsi
	subq	$1, %rbx
	leaq	271(%rbp), %rax
	movq	%rax, %rcx
	call	_ZNSaIcEC1Ev
	leaq	271(%rbp), %rax
	movq	%rax, %r8
	leaq	.LC93(%rip), %rdx
	movq	%rsi, %rcx
.LEHB421:
	call	_ZNSt7__cxx1112basic_stringIcSt11char_traitsIcESaIcEEC1EPKcRKS3_
.LEHE421:
	leaq	271(%rbp), %rax
	movq	%rax, %rcx
	call	_ZNSaIcED1Ev
	addq	$32, %rsi
	subq	$1, %rbx
	leaq	272(%rbp), %rax
	movq	%rax, %rcx
	call	_ZNSaIcEC1Ev
	leaq	272(%rbp), %rax
	movq	%rax, %r8
	leaq	.LC293(%rip), %rdx
	movq	%rsi, %rcx
.LEHB422:
	call	_ZNSt7__cxx1112basic_stringIcSt11char_traitsIcESaIcEEC1EPKcRKS3_
.LEHE422:
	leaq	272(%rbp), %rax
	movq	%rax, %rcx
	call	_ZNSaIcED1Ev
	addq	$32, %rsi
	subq	$1, %rbx
	leaq	273(%rbp), %rax
	movq	%rax, %rcx
	call	_ZNSaIcEC1Ev
	leaq	273(%rbp), %rax
	movq	%rax, %r8
	leaq	.LC92(%rip), %rdx
	movq	%rsi, %rcx
.LEHB423:
	call	_ZNSt7__cxx1112basic_stringIcSt11char_traitsIcESaIcEEC1EPKcRKS3_
.LEHE423:
	leaq	273(%rbp), %rax
	movq	%rax, %rcx
	call	_ZNSaIcED1Ev
	addq	$32, %rsi
	subq	$1, %rbx
	leaq	274(%rbp), %rax
	movq	%rax, %rcx
	call	_ZNSaIcEC1Ev
	leaq	274(%rbp), %rax
	movq	%rax, %r8
	leaq	.LC294(%rip), %rdx
	movq	%rsi, %rcx
.LEHB424:
	call	_ZNSt7__cxx1112basic_stringIcSt11char_traitsIcESaIcEEC1EPKcRKS3_
.LEHE424:
	leaq	274(%rbp), %rax
	movq	%rax, %rcx
	call	_ZNSaIcED1Ev
	addq	$32, %rsi
	subq	$1, %rbx
	leaq	275(%rbp), %rax
	movq	%rax, %rcx
	call	_ZNSaIcEC1Ev
	leaq	275(%rbp), %rax
	movq	%rax, %r8
	leaq	.LC295(%rip), %rdx
	movq	%rsi, %rcx
.LEHB425:
	call	_ZNSt7__cxx1112basic_stringIcSt11char_traitsIcESaIcEEC1EPKcRKS3_
.LEHE425:
	leaq	275(%rbp), %rax
	movq	%rax, %rcx
	call	_ZNSaIcED1Ev
	addq	$32, %rsi
	subq	$1, %rbx
	leaq	276(%rbp), %rax
	movq	%rax, %rcx
	call	_ZNSaIcEC1Ev
	leaq	276(%rbp), %rax
	movq	%rax, %r8
	leaq	.LC296(%rip), %rdx
	movq	%rsi, %rcx
.LEHB426:
	call	_ZNSt7__cxx1112basic_stringIcSt11char_traitsIcESaIcEEC1EPKcRKS3_
.LEHE426:
	leaq	276(%rbp), %rax
	movq	%rax, %rcx
	call	_ZNSaIcED1Ev
	addq	$32, %rsi
	subq	$1, %rbx
	leaq	277(%rbp), %rax
	movq	%rax, %rcx
	call	_ZNSaIcEC1Ev
	leaq	277(%rbp), %rax
	movq	%rax, %r8
	leaq	.LC297(%rip), %rdx
	movq	%rsi, %rcx
.LEHB427:
	call	_ZNSt7__cxx1112basic_stringIcSt11char_traitsIcESaIcEEC1EPKcRKS3_
.LEHE427:
	leaq	277(%rbp), %rax
	movq	%rax, %rcx
	call	_ZNSaIcED1Ev
	addq	$32, %rsi
	subq	$1, %rbx
	leaq	278(%rbp), %rax
	movq	%rax, %rcx
	call	_ZNSaIcEC1Ev
	leaq	278(%rbp), %rax
	movq	%rax, %r8
	leaq	.LC85(%rip), %rdx
	movq	%rsi, %rcx
.LEHB428:
	call	_ZNSt7__cxx1112basic_stringIcSt11char_traitsIcESaIcEEC1EPKcRKS3_
.LEHE428:
	leaq	278(%rbp), %rax
	movq	%rax, %rcx
	call	_ZNSaIcED1Ev
	addq	$32, %rsi
	subq	$1, %rbx
	leaq	279(%rbp), %rax
	movq	%rax, %rcx
	call	_ZNSaIcEC1Ev
	leaq	279(%rbp), %rax
	movq	%rax, %r8
	leaq	.LC298(%rip), %rdx
	movq	%rsi, %rcx
.LEHB429:
	call	_ZNSt7__cxx1112basic_stringIcSt11char_traitsIcESaIcEEC1EPKcRKS3_
.LEHE429:
	leaq	279(%rbp), %rax
	movq	%rax, %rcx
	call	_ZNSaIcED1Ev
	addq	$32, %rsi
	subq	$1, %rbx
	leaq	280(%rbp), %rax
	movq	%rax, %rcx
	call	_ZNSaIcEC1Ev
	leaq	280(%rbp), %rax
	movq	%rax, %r8
	leaq	.LC299(%rip), %rdx
	movq	%rsi, %rcx
.LEHB430:
	call	_ZNSt7__cxx1112basic_stringIcSt11char_traitsIcESaIcEEC1EPKcRKS3_
.LEHE430:
	leaq	280(%rbp), %rax
	movq	%rax, %rcx
	call	_ZNSaIcED1Ev
	addq	$32, %rsi
	subq	$1, %rbx
	leaq	281(%rbp), %rax
	movq	%rax, %rcx
	call	_ZNSaIcEC1Ev
	leaq	281(%rbp), %rax
	movq	%rax, %r8
	leaq	.LC300(%rip), %rdx
	movq	%rsi, %rcx
.LEHB431:
	call	_ZNSt7__cxx1112basic_stringIcSt11char_traitsIcESaIcEEC1EPKcRKS3_
.LEHE431:
	leaq	281(%rbp), %rax
	movq	%rax, %rcx
	call	_ZNSaIcED1Ev
	addq	$32, %rsi
	subq	$1, %rbx
	leaq	282(%rbp), %rax
	movq	%rax, %rcx
	call	_ZNSaIcEC1Ev
	leaq	282(%rbp), %rax
	movq	%rax, %r8
	leaq	.LC75(%rip), %rdx
	movq	%rsi, %rcx
.LEHB432:
	call	_ZNSt7__cxx1112basic_stringIcSt11char_traitsIcESaIcEEC1EPKcRKS3_
.LEHE432:
	leaq	282(%rbp), %rax
	movq	%rax, %rcx
	call	_ZNSaIcED1Ev
	addq	$32, %rsi
	subq	$1, %rbx
	leaq	283(%rbp), %rax
	movq	%rax, %rcx
	call	_ZNSaIcEC1Ev
	leaq	283(%rbp), %rax
	movq	%rax, %r8
	leaq	.LC104(%rip), %rdx
	movq	%rsi, %rcx
.LEHB433:
	call	_ZNSt7__cxx1112basic_stringIcSt11char_traitsIcESaIcEEC1EPKcRKS3_
.LEHE433:
	leaq	283(%rbp), %rax
	movq	%rax, %rcx
	call	_ZNSaIcED1Ev
	addq	$32, %rsi
	subq	$1, %rbx
	leaq	284(%rbp), %rax
	movq	%rax, %rcx
	call	_ZNSaIcEC1Ev
	leaq	284(%rbp), %rax
	movq	%rax, %r8
	leaq	.LC62(%rip), %rdx
	movq	%rsi, %rcx
.LEHB434:
	call	_ZNSt7__cxx1112basic_stringIcSt11char_traitsIcESaIcEEC1EPKcRKS3_
.LEHE434:
	leaq	284(%rbp), %rax
	movq	%rax, %rcx
	call	_ZNSaIcED1Ev
	addq	$32, %rsi
	subq	$1, %rbx
	leaq	285(%rbp), %rax
	movq	%rax, %rcx
	call	_ZNSaIcEC1Ev
	leaq	285(%rbp), %rax
	movq	%rax, %r8
	leaq	.LC265(%rip), %rdx
	movq	%rsi, %rcx
.LEHB435:
	call	_ZNSt7__cxx1112basic_stringIcSt11char_traitsIcESaIcEEC1EPKcRKS3_
.LEHE435:
	leaq	285(%rbp), %rax
	movq	%rax, %rcx
	call	_ZNSaIcED1Ev
	addq	$32, %rsi
	subq	$1, %rbx
	leaq	286(%rbp), %rax
	movq	%rax, %rcx
	call	_ZNSaIcEC1Ev
	leaq	286(%rbp), %rax
	movq	%rax, %r8
	leaq	.LC301(%rip), %rdx
	movq	%rsi, %rcx
.LEHB436:
	call	_ZNSt7__cxx1112basic_stringIcSt11char_traitsIcESaIcEEC1EPKcRKS3_
.LEHE436:
	leaq	286(%rbp), %rax
	movq	%rax, %rcx
	call	_ZNSaIcED1Ev
	addq	$32, %rsi
	subq	$1, %rbx
	leaq	287(%rbp), %rax
	movq	%rax, %rcx
	call	_ZNSaIcEC1Ev
	leaq	287(%rbp), %rax
	movq	%rax, %r8
	leaq	.LC302(%rip), %rdx
	movq	%rsi, %rcx
.LEHB437:
	call	_ZNSt7__cxx1112basic_stringIcSt11char_traitsIcESaIcEEC1EPKcRKS3_
.LEHE437:
	leaq	287(%rbp), %rax
	movq	%rax, %rcx
	call	_ZNSaIcED1Ev
	addq	$32, %rsi
	subq	$1, %rbx
	leaq	288(%rbp), %rax
	movq	%rax, %rcx
	call	_ZNSaIcEC1Ev
	leaq	288(%rbp), %rax
	movq	%rax, %r8
	leaq	.LC303(%rip), %rdx
	movq	%rsi, %rcx
.LEHB438:
	call	_ZNSt7__cxx1112basic_stringIcSt11char_traitsIcESaIcEEC1EPKcRKS3_
.LEHE438:
	leaq	288(%rbp), %rax
	movq	%rax, %rcx
	call	_ZNSaIcED1Ev
	addq	$32, %rsi
	subq	$1, %rbx
	leaq	289(%rbp), %rax
	movq	%rax, %rcx
	call	_ZNSaIcEC1Ev
	leaq	289(%rbp), %rax
	movq	%rax, %r8
	leaq	.LC44(%rip), %rdx
	movq	%rsi, %rcx
.LEHB439:
	call	_ZNSt7__cxx1112basic_stringIcSt11char_traitsIcESaIcEEC1EPKcRKS3_
.LEHE439:
	leaq	289(%rbp), %rax
	movq	%rax, %rcx
	call	_ZNSaIcED1Ev
	addq	$32, %rsi
	subq	$1, %rbx
	leaq	290(%rbp), %rax
	movq	%rax, %rcx
	call	_ZNSaIcEC1Ev
	leaq	290(%rbp), %rax
	movq	%rax, %r8
	leaq	.LC304(%rip), %rdx
	movq	%rsi, %rcx
.LEHB440:
	call	_ZNSt7__cxx1112basic_stringIcSt11char_traitsIcESaIcEEC1EPKcRKS3_
.LEHE440:
	leaq	290(%rbp), %rax
	movq	%rax, %rcx
	call	_ZNSaIcED1Ev
	addq	$32, %rsi
	subq	$1, %rbx
	leaq	291(%rbp), %rax
	movq	%rax, %rcx
	call	_ZNSaIcEC1Ev
	leaq	291(%rbp), %rax
	movq	%rax, %r8
	leaq	.LC305(%rip), %rdx
	movq	%rsi, %rcx
.LEHB441:
	call	_ZNSt7__cxx1112basic_stringIcSt11char_traitsIcESaIcEEC1EPKcRKS3_
.LEHE441:
	leaq	291(%rbp), %rax
	movq	%rax, %rcx
	call	_ZNSaIcED1Ev
	addq	$32, %rsi
	subq	$1, %rbx
	leaq	292(%rbp), %rax
	movq	%rax, %rcx
	call	_ZNSaIcEC1Ev
	leaq	292(%rbp), %rax
	movq	%rax, %r8
	leaq	.LC306(%rip), %rdx
	movq	%rsi, %rcx
.LEHB442:
	call	_ZNSt7__cxx1112basic_stringIcSt11char_traitsIcESaIcEEC1EPKcRKS3_
.LEHE442:
	leaq	292(%rbp), %rax
	movq	%rax, %rcx
	call	_ZNSaIcED1Ev
	addq	$32, %rsi
	subq	$1, %rbx
	leaq	293(%rbp), %rax
	movq	%rax, %rcx
	call	_ZNSaIcEC1Ev
	leaq	293(%rbp), %rax
	movq	%rax, %r8
	leaq	.LC307(%rip), %rdx
	movq	%rsi, %rcx
.LEHB443:
	call	_ZNSt7__cxx1112basic_stringIcSt11char_traitsIcESaIcEEC1EPKcRKS3_
.LEHE443:
	leaq	293(%rbp), %rax
	movq	%rax, %rcx
	call	_ZNSaIcED1Ev
	addq	$32, %rsi
	subq	$1, %rbx
	leaq	294(%rbp), %rax
	movq	%rax, %rcx
	call	_ZNSaIcEC1Ev
	leaq	294(%rbp), %rax
	movq	%rax, %r8
	leaq	.LC44(%rip), %rdx
	movq	%rsi, %rcx
.LEHB444:
	call	_ZNSt7__cxx1112basic_stringIcSt11char_traitsIcESaIcEEC1EPKcRKS3_
.LEHE444:
	leaq	294(%rbp), %rax
	movq	%rax, %rcx
	call	_ZNSaIcED1Ev
	addq	$32, %rsi
	subq	$1, %rbx
	leaq	295(%rbp), %rax
	movq	%rax, %rcx
	call	_ZNSaIcEC1Ev
	leaq	295(%rbp), %rax
	movq	%rax, %r8
	leaq	.LC308(%rip), %rdx
	movq	%rsi, %rcx
.LEHB445:
	call	_ZNSt7__cxx1112basic_stringIcSt11char_traitsIcESaIcEEC1EPKcRKS3_
.LEHE445:
	leaq	295(%rbp), %rax
	movq	%rax, %rcx
	call	_ZNSaIcED1Ev
	addq	$32, %rsi
	subq	$1, %rbx
	leaq	296(%rbp), %rax
	movq	%rax, %rcx
	call	_ZNSaIcEC1Ev
	leaq	296(%rbp), %rax
	movq	%rax, %r8
	leaq	.LC309(%rip), %rdx
	movq	%rsi, %rcx
.LEHB446:
	call	_ZNSt7__cxx1112basic_stringIcSt11char_traitsIcESaIcEEC1EPKcRKS3_
.LEHE446:
	leaq	296(%rbp), %rax
	movq	%rax, %rcx
	call	_ZNSaIcED1Ev
	addq	$32, %rsi
	subq	$1, %rbx
	leaq	297(%rbp), %rax
	movq	%rax, %rcx
	call	_ZNSaIcEC1Ev
	leaq	297(%rbp), %rax
	movq	%rax, %r8
	leaq	.LC44(%rip), %rdx
	movq	%rsi, %rcx
.LEHB447:
	call	_ZNSt7__cxx1112basic_stringIcSt11char_traitsIcESaIcEEC1EPKcRKS3_
.LEHE447:
	leaq	297(%rbp), %rax
	movq	%rax, %rcx
	call	_ZNSaIcED1Ev
	addq	$32, %rsi
	subq	$1, %rbx
	leaq	298(%rbp), %rax
	movq	%rax, %rcx
	call	_ZNSaIcEC1Ev
	leaq	298(%rbp), %rax
	movq	%rax, %r8
	leaq	.LC310(%rip), %rdx
	movq	%rsi, %rcx
.LEHB448:
	call	_ZNSt7__cxx1112basic_stringIcSt11char_traitsIcESaIcEEC1EPKcRKS3_
.LEHE448:
	leaq	298(%rbp), %rax
	movq	%rax, %rcx
	call	_ZNSaIcED1Ev
	addq	$32, %rsi
	subq	$1, %rbx
	leaq	299(%rbp), %rax
	movq	%rax, %rcx
	call	_ZNSaIcEC1Ev
	leaq	299(%rbp), %rax
	movq	%rax, %r8
	leaq	.LC311(%rip), %rdx
	movq	%rsi, %rcx
.LEHB449:
	call	_ZNSt7__cxx1112basic_stringIcSt11char_traitsIcESaIcEEC1EPKcRKS3_
.LEHE449:
	leaq	299(%rbp), %rax
	movq	%rax, %rcx
	call	_ZNSaIcED1Ev
	addq	$32, %rsi
	subq	$1, %rbx
	leaq	300(%rbp), %rax
	movq	%rax, %rcx
	call	_ZNSaIcEC1Ev
	leaq	300(%rbp), %rax
	movq	%rax, %r8
	leaq	.LC312(%rip), %rdx
	movq	%rsi, %rcx
.LEHB450:
	call	_ZNSt7__cxx1112basic_stringIcSt11char_traitsIcESaIcEEC1EPKcRKS3_
.LEHE450:
	leaq	300(%rbp), %rax
	movq	%rax, %rcx
	call	_ZNSaIcED1Ev
	addq	$32, %rsi
	subq	$1, %rbx
	leaq	301(%rbp), %rax
	movq	%rax, %rcx
	call	_ZNSaIcEC1Ev
	leaq	301(%rbp), %rax
	movq	%rax, %r8
	leaq	.LC145(%rip), %rdx
	movq	%rsi, %rcx
.LEHB451:
	call	_ZNSt7__cxx1112basic_stringIcSt11char_traitsIcESaIcEEC1EPKcRKS3_
.LEHE451:
	leaq	301(%rbp), %rax
	movq	%rax, %rcx
	call	_ZNSaIcED1Ev
	addq	$32, %rsi
	subq	$1, %rbx
	leaq	302(%rbp), %rax
	movq	%rax, %rcx
	call	_ZNSaIcEC1Ev
	leaq	302(%rbp), %rax
	movq	%rax, %r8
	leaq	.LC44(%rip), %rdx
	movq	%rsi, %rcx
.LEHB452:
	call	_ZNSt7__cxx1112basic_stringIcSt11char_traitsIcESaIcEEC1EPKcRKS3_
.LEHE452:
	leaq	302(%rbp), %rax
	movq	%rax, %rcx
	call	_ZNSaIcED1Ev
	addq	$32, %rsi
	subq	$1, %rbx
	leaq	303(%rbp), %rax
	movq	%rax, %rcx
	call	_ZNSaIcEC1Ev
	leaq	303(%rbp), %rax
	movq	%rax, %r8
	leaq	.LC313(%rip), %rdx
	movq	%rsi, %rcx
.LEHB453:
	call	_ZNSt7__cxx1112basic_stringIcSt11char_traitsIcESaIcEEC1EPKcRKS3_
.LEHE453:
	leaq	303(%rbp), %rax
	movq	%rax, %rcx
	call	_ZNSaIcED1Ev
	addq	$32, %rsi
	subq	$1, %rbx
	leaq	304(%rbp), %rax
	movq	%rax, %rcx
	call	_ZNSaIcEC1Ev
	leaq	304(%rbp), %rax
	movq	%rax, %r8
	leaq	.LC43(%rip), %rdx
	movq	%rsi, %rcx
.LEHB454:
	call	_ZNSt7__cxx1112basic_stringIcSt11char_traitsIcESaIcEEC1EPKcRKS3_
.LEHE454:
	leaq	304(%rbp), %rax
	movq	%rax, %rcx
	call	_ZNSaIcED1Ev
	addq	$32, %rsi
	subq	$1, %rbx
	leaq	305(%rbp), %rax
	movq	%rax, %rcx
	call	_ZNSaIcEC1Ev
	leaq	305(%rbp), %rax
	movq	%rax, %r8
	leaq	.LC101(%rip), %rdx
	movq	%rsi, %rcx
.LEHB455:
	call	_ZNSt7__cxx1112basic_stringIcSt11char_traitsIcESaIcEEC1EPKcRKS3_
.LEHE455:
	leaq	305(%rbp), %rax
	movq	%rax, %rcx
	call	_ZNSaIcED1Ev
	addq	$32, %rsi
	subq	$1, %rbx
	leaq	306(%rbp), %rax
	movq	%rax, %rcx
	call	_ZNSaIcEC1Ev
	leaq	306(%rbp), %rax
	movq	%rax, %r8
	leaq	.LC314(%rip), %rdx
	movq	%rsi, %rcx
.LEHB456:
	call	_ZNSt7__cxx1112basic_stringIcSt11char_traitsIcESaIcEEC1EPKcRKS3_
.LEHE456:
	leaq	306(%rbp), %rax
	movq	%rax, %rcx
	call	_ZNSaIcED1Ev
	addq	$32, %rsi
	subq	$1, %rbx
	leaq	307(%rbp), %rax
	movq	%rax, %rcx
	call	_ZNSaIcEC1Ev
	leaq	307(%rbp), %rax
	movq	%rax, %r8
	leaq	.LC101(%rip), %rdx
	movq	%rsi, %rcx
.LEHB457:
	call	_ZNSt7__cxx1112basic_stringIcSt11char_traitsIcESaIcEEC1EPKcRKS3_
.LEHE457:
	leaq	307(%rbp), %rax
	movq	%rax, %rcx
	call	_ZNSaIcED1Ev
	addq	$32, %rsi
	subq	$1, %rbx
	leaq	308(%rbp), %rax
	movq	%rax, %rcx
	call	_ZNSaIcEC1Ev
	leaq	308(%rbp), %rax
	movq	%rax, %r8
	leaq	.LC315(%rip), %rdx
	movq	%rsi, %rcx
.LEHB458:
	call	_ZNSt7__cxx1112basic_stringIcSt11char_traitsIcESaIcEEC1EPKcRKS3_
.LEHE458:
	leaq	308(%rbp), %rax
	movq	%rax, %rcx
	call	_ZNSaIcED1Ev
	addq	$32, %rsi
	subq	$1, %rbx
	leaq	309(%rbp), %rax
	movq	%rax, %rcx
	call	_ZNSaIcEC1Ev
	leaq	309(%rbp), %rax
	movq	%rax, %r8
	leaq	.LC316(%rip), %rdx
	movq	%rsi, %rcx
.LEHB459:
	call	_ZNSt7__cxx1112basic_stringIcSt11char_traitsIcESaIcEEC1EPKcRKS3_
.LEHE459:
	leaq	309(%rbp), %rax
	movq	%rax, %rcx
	call	_ZNSaIcED1Ev
	addq	$32, %rsi
	subq	$1, %rbx
	leaq	310(%rbp), %rax
	movq	%rax, %rcx
	call	_ZNSaIcEC1Ev
	leaq	310(%rbp), %rax
	movq	%rax, %r8
	leaq	.LC317(%rip), %rdx
	movq	%rsi, %rcx
.LEHB460:
	call	_ZNSt7__cxx1112basic_stringIcSt11char_traitsIcESaIcEEC1EPKcRKS3_
.LEHE460:
	leaq	310(%rbp), %rax
	movq	%rax, %rcx
	call	_ZNSaIcED1Ev
	addq	$32, %rsi
	subq	$1, %rbx
	leaq	311(%rbp), %rax
	movq	%rax, %rcx
	call	_ZNSaIcEC1Ev
	leaq	311(%rbp), %rax
	movq	%rax, %r8
	leaq	.LC92(%rip), %rdx
	movq	%rsi, %rcx
.LEHB461:
	call	_ZNSt7__cxx1112basic_stringIcSt11char_traitsIcESaIcEEC1EPKcRKS3_
.LEHE461:
	leaq	311(%rbp), %rax
	movq	%rax, %rcx
	call	_ZNSaIcED1Ev
	addq	$32, %rsi
	subq	$1, %rbx
	leaq	312(%rbp), %rax
	movq	%rax, %rcx
	call	_ZNSaIcEC1Ev
	leaq	312(%rbp), %rax
	movq	%rax, %r8
	leaq	.LC150(%rip), %rdx
	movq	%rsi, %rcx
.LEHB462:
	call	_ZNSt7__cxx1112basic_stringIcSt11char_traitsIcESaIcEEC1EPKcRKS3_
.LEHE462:
	leaq	312(%rbp), %rax
	movq	%rax, %rcx
	call	_ZNSaIcED1Ev
	addq	$32, %rsi
	subq	$1, %rbx
	leaq	313(%rbp), %rax
	movq	%rax, %rcx
	call	_ZNSaIcEC1Ev
	leaq	313(%rbp), %rax
	movq	%rax, %r8
	leaq	.LC318(%rip), %rdx
	movq	%rsi, %rcx
.LEHB463:
	call	_ZNSt7__cxx1112basic_stringIcSt11char_traitsIcESaIcEEC1EPKcRKS3_
.LEHE463:
	leaq	313(%rbp), %rax
	movq	%rax, %rcx
	call	_ZNSaIcED1Ev
	addq	$32, %rsi
	subq	$1, %rbx
	leaq	314(%rbp), %rax
	movq	%rax, %rcx
	call	_ZNSaIcEC1Ev
	leaq	314(%rbp), %rax
	movq	%rax, %r8
	leaq	.LC73(%rip), %rdx
	movq	%rsi, %rcx
.LEHB464:
	call	_ZNSt7__cxx1112basic_stringIcSt11char_traitsIcESaIcEEC1EPKcRKS3_
.LEHE464:
	leaq	314(%rbp), %rax
	movq	%rax, %rcx
	call	_ZNSaIcED1Ev
	addq	$32, %rsi
	subq	$1, %rbx
	leaq	315(%rbp), %rax
	movq	%rax, %rcx
	call	_ZNSaIcEC1Ev
	leaq	315(%rbp), %rax
	movq	%rax, %r8
	leaq	.LC132(%rip), %rdx
	movq	%rsi, %rcx
.LEHB465:
	call	_ZNSt7__cxx1112basic_stringIcSt11char_traitsIcESaIcEEC1EPKcRKS3_
.LEHE465:
	leaq	315(%rbp), %rax
	movq	%rax, %rcx
	call	_ZNSaIcED1Ev
	addq	$32, %rsi
	subq	$1, %rbx
	leaq	316(%rbp), %rax
	movq	%rax, %rcx
	call	_ZNSaIcEC1Ev
	leaq	316(%rbp), %rax
	movq	%rax, %r8
	leaq	.LC133(%rip), %rdx
	movq	%rsi, %rcx
.LEHB466:
	call	_ZNSt7__cxx1112basic_stringIcSt11char_traitsIcESaIcEEC1EPKcRKS3_
.LEHE466:
	leaq	316(%rbp), %rax
	movq	%rax, %rcx
	call	_ZNSaIcED1Ev
	addq	$32, %rsi
	subq	$1, %rbx
	leaq	317(%rbp), %rax
	movq	%rax, %rcx
	call	_ZNSaIcEC1Ev
	leaq	317(%rbp), %rax
	movq	%rax, %r8
	leaq	.LC319(%rip), %rdx
	movq	%rsi, %rcx
.LEHB467:
	call	_ZNSt7__cxx1112basic_stringIcSt11char_traitsIcESaIcEEC1EPKcRKS3_
.LEHE467:
	leaq	317(%rbp), %rax
	movq	%rax, %rcx
	call	_ZNSaIcED1Ev
	addq	$32, %rsi
	subq	$1, %rbx
	leaq	318(%rbp), %rax
	movq	%rax, %rcx
	call	_ZNSaIcEC1Ev
	leaq	318(%rbp), %rax
	movq	%rax, %r8
	leaq	.LC78(%rip), %rdx
	movq	%rsi, %rcx
.LEHB468:
	call	_ZNSt7__cxx1112basic_stringIcSt11char_traitsIcESaIcEEC1EPKcRKS3_
.LEHE468:
	leaq	318(%rbp), %rax
	movq	%rax, %rcx
	call	_ZNSaIcED1Ev
	addq	$32, %rsi
	subq	$1, %rbx
	leaq	319(%rbp), %rax
	movq	%rax, %rcx
	call	_ZNSaIcEC1Ev
	leaq	319(%rbp), %rax
	movq	%rax, %r8
	leaq	.LC320(%rip), %rdx
	movq	%rsi, %rcx
.LEHB469:
	call	_ZNSt7__cxx1112basic_stringIcSt11char_traitsIcESaIcEEC1EPKcRKS3_
.LEHE469:
	leaq	319(%rbp), %rax
	movq	%rax, %rcx
	call	_ZNSaIcED1Ev
	addq	$32, %rsi
	subq	$1, %rbx
	leaq	320(%rbp), %rax
	movq	%rax, %rcx
	call	_ZNSaIcEC1Ev
	leaq	320(%rbp), %rax
	movq	%rax, %r8
	leaq	.LC85(%rip), %rdx
	movq	%rsi, %rcx
.LEHB470:
	call	_ZNSt7__cxx1112basic_stringIcSt11char_traitsIcESaIcEEC1EPKcRKS3_
.LEHE470:
	leaq	320(%rbp), %rax
	movq	%rax, %rcx
	call	_ZNSaIcED1Ev
	addq	$32, %rsi
	subq	$1, %rbx
	leaq	321(%rbp), %rax
	movq	%rax, %rcx
	call	_ZNSaIcEC1Ev
	leaq	321(%rbp), %rax
	movq	%rax, %r8
	leaq	.LC84(%rip), %rdx
	movq	%rsi, %rcx
.LEHB471:
	call	_ZNSt7__cxx1112basic_stringIcSt11char_traitsIcESaIcEEC1EPKcRKS3_
.LEHE471:
	leaq	321(%rbp), %rax
	movq	%rax, %rcx
	call	_ZNSaIcED1Ev
	addq	$32, %rsi
	subq	$1, %rbx
	leaq	322(%rbp), %rax
	movq	%rax, %rcx
	call	_ZNSaIcEC1Ev
	leaq	322(%rbp), %rax
	movq	%rax, %r8
	leaq	.LC321(%rip), %rdx
	movq	%rsi, %rcx
.LEHB472:
	call	_ZNSt7__cxx1112basic_stringIcSt11char_traitsIcESaIcEEC1EPKcRKS3_
.LEHE472:
	leaq	322(%rbp), %rax
	movq	%rax, %rcx
	call	_ZNSaIcED1Ev
	addq	$32, %rsi
	subq	$1, %rbx
	leaq	323(%rbp), %rax
	movq	%rax, %rcx
	call	_ZNSaIcEC1Ev
	leaq	323(%rbp), %rax
	movq	%rax, %r8
	leaq	.LC92(%rip), %rdx
	movq	%rsi, %rcx
.LEHB473:
	call	_ZNSt7__cxx1112basic_stringIcSt11char_traitsIcESaIcEEC1EPKcRKS3_
.LEHE473:
	leaq	323(%rbp), %rax
	movq	%rax, %rcx
	call	_ZNSaIcED1Ev
	addq	$32, %rsi
	subq	$1, %rbx
	leaq	324(%rbp), %rax
	movq	%rax, %rcx
	call	_ZNSaIcEC1Ev
	leaq	324(%rbp), %rax
	movq	%rax, %r8
	leaq	.LC322(%rip), %rdx
	movq	%rsi, %rcx
.LEHB474:
	call	_ZNSt7__cxx1112basic_stringIcSt11char_traitsIcESaIcEEC1EPKcRKS3_
.LEHE474:
	leaq	324(%rbp), %rax
	movq	%rax, %rcx
	call	_ZNSaIcED1Ev
	addq	$32, %rsi
	subq	$1, %rbx
	leaq	325(%rbp), %rax
	movq	%rax, %rcx
	call	_ZNSaIcEC1Ev
	leaq	325(%rbp), %rax
	movq	%rax, %r8
	leaq	.LC323(%rip), %rdx
	movq	%rsi, %rcx
.LEHB475:
	call	_ZNSt7__cxx1112basic_stringIcSt11char_traitsIcESaIcEEC1EPKcRKS3_
.LEHE475:
	leaq	325(%rbp), %rax
	movq	%rax, %rcx
	call	_ZNSaIcED1Ev
	addq	$32, %rsi
	subq	$1, %rbx
	leaq	326(%rbp), %rax
	movq	%rax, %rcx
	call	_ZNSaIcEC1Ev
	leaq	326(%rbp), %rax
